
_LOAD_EEPROM_Param:

;EEPROM_Data.c,68 :: 		void LOAD_EEPROM_Param(void)
;EEPROM_Data.c,70 :: 		unsigned int temp=0,i;
	CLRF        LOAD_EEPROM_Param_temp_L0+0 
	CLRF        LOAD_EEPROM_Param_temp_L0+1 
;EEPROM_Data.c,73 :: 		temp = EEPROM_Read(First_Time_addr);
	MOVLW       15
	MOVWF       FARG_Eeprom_Read_address+0 
	MOVLW       0
	MOVWF       FARG_Eeprom_Read_address+1 
	CALL        _Eeprom_Read+0, 0
	MOVF        R0, 0 
	MOVWF       LOAD_EEPROM_Param_temp_L0+0 
	MOVLW       0
	MOVWF       LOAD_EEPROM_Param_temp_L0+1 
;EEPROM_Data.c,113 :: 		T6963C_PanelFill(0);
	CLRF        FARG_T6963C_fill_v+0 
	CLRF        FARG_T6963C_fill_start+0 
	CLRF        FARG_T6963C_fill_start+1 
	MOVF        _T6963C_txtMemSize+0, 0 
	ADDWF       _T6963C_grMemSize+0, 0 
	MOVWF       FARG_T6963C_fill_len+0 
	MOVF        _T6963C_txtMemSize+1, 0 
	ADDWFC      _T6963C_grMemSize+1, 0 
	MOVWF       FARG_T6963C_fill_len+1 
	CALL        _T6963C_fill+0, 0
;EEPROM_Data.c,114 :: 		if(temp != 0x88)
	MOVLW       0
	XORWF       LOAD_EEPROM_Param_temp_L0+1, 0 
	BTFSS       STATUS+0, 2 
	GOTO        L__LOAD_EEPROM_Param230
	MOVLW       136
	XORWF       LOAD_EEPROM_Param_temp_L0+0, 0 
L__LOAD_EEPROM_Param230:
	BTFSC       STATUS+0, 2 
	GOTO        L_LOAD_EEPROM_Param0
;EEPROM_Data.c,116 :: 		FirstTime_EEPROM_Param();//INITIAL RUN
	CALL        _FirstTime_EEPROM_Param+0, 0
;EEPROM_Data.c,117 :: 		}
	GOTO        L_LOAD_EEPROM_Param1
L_LOAD_EEPROM_Param0:
;EEPROM_Data.c,122 :: 		while( Set == 1 );
L_LOAD_EEPROM_Param2:
	BTFSS       RE6_bit+0, BitPos(RE6_bit+0) 
	GOTO        L_LOAD_EEPROM_Param3
	GOTO        L_LOAD_EEPROM_Param2
L_LOAD_EEPROM_Param3:
;EEPROM_Data.c,123 :: 		T6963C_PanelFill(0);
	CLRF        FARG_T6963C_fill_v+0 
	CLRF        FARG_T6963C_fill_start+0 
	CLRF        FARG_T6963C_fill_start+1 
	MOVF        _T6963C_txtMemSize+0, 0 
	ADDWF       _T6963C_grMemSize+0, 0 
	MOVWF       FARG_T6963C_fill_len+0 
	MOVF        _T6963C_txtMemSize+1, 0 
	ADDWFC      _T6963C_grMemSize+1, 0 
	MOVWF       FARG_T6963C_fill_len+1 
	CALL        _T6963C_fill+0, 0
;EEPROM_Data.c,124 :: 		T6963C_Write_Text_Adv_ROM("FACTORY",92,48);
	MOVLW       ?lstr_1_EEPROM_Data+0
	MOVWF       FARG_T6963C_Write_Text_Adv_ROM_text+0 
	MOVLW       hi_addr(?lstr_1_EEPROM_Data+0)
	MOVWF       FARG_T6963C_Write_Text_Adv_ROM_text+1 
	MOVLW       higher_addr(?lstr_1_EEPROM_Data+0)
	MOVWF       FARG_T6963C_Write_Text_Adv_ROM_text+2 
	MOVLW       92
	MOVWF       FARG_T6963C_Write_Text_Adv_ROM_x+0 
	MOVLW       48
	MOVWF       FARG_T6963C_Write_Text_Adv_ROM_y+0 
	CALL        _T6963C_Write_Text_Adv_ROM+0, 0
;EEPROM_Data.c,125 :: 		T6963C_Write_Text_Adv_ROM("SETTINGS",88,64);
	MOVLW       ?lstr_2_EEPROM_Data+0
	MOVWF       FARG_T6963C_Write_Text_Adv_ROM_text+0 
	MOVLW       hi_addr(?lstr_2_EEPROM_Data+0)
	MOVWF       FARG_T6963C_Write_Text_Adv_ROM_text+1 
	MOVLW       higher_addr(?lstr_2_EEPROM_Data+0)
	MOVWF       FARG_T6963C_Write_Text_Adv_ROM_text+2 
	MOVLW       88
	MOVWF       FARG_T6963C_Write_Text_Adv_ROM_x+0 
	MOVLW       64
	MOVWF       FARG_T6963C_Write_Text_Adv_ROM_y+0 
	CALL        _T6963C_Write_Text_Adv_ROM+0, 0
;EEPROM_Data.c,126 :: 		delay_ms(1500);
	MOVLW       122
	MOVWF       R11, 0
	MOVLW       193
	MOVWF       R12, 0
	MOVLW       129
	MOVWF       R13, 0
L_LOAD_EEPROM_Param4:
	DECFSZ      R13, 1, 1
	BRA         L_LOAD_EEPROM_Param4
	DECFSZ      R12, 1, 1
	BRA         L_LOAD_EEPROM_Param4
	DECFSZ      R11, 1, 1
	BRA         L_LOAD_EEPROM_Param4
	NOP
	NOP
;EEPROM_Data.c,127 :: 		T6963C_PanelFill(0);
	CLRF        FARG_T6963C_fill_v+0 
	CLRF        FARG_T6963C_fill_start+0 
	CLRF        FARG_T6963C_fill_start+1 
	MOVF        _T6963C_txtMemSize+0, 0 
	ADDWF       _T6963C_grMemSize+0, 0 
	MOVWF       FARG_T6963C_fill_len+0 
	MOVF        _T6963C_txtMemSize+1, 0 
	ADDWFC      _T6963C_grMemSize+1, 0 
	MOVWF       FARG_T6963C_fill_len+1 
	CALL        _T6963C_fill+0, 0
;EEPROM_Data.c,128 :: 		T6963C_Write_Text_Adv_ROM("MICRO BRAIN GLCD",56,40);
	MOVLW       ?lstr_3_EEPROM_Data+0
	MOVWF       FARG_T6963C_Write_Text_Adv_ROM_text+0 
	MOVLW       hi_addr(?lstr_3_EEPROM_Data+0)
	MOVWF       FARG_T6963C_Write_Text_Adv_ROM_text+1 
	MOVLW       higher_addr(?lstr_3_EEPROM_Data+0)
	MOVWF       FARG_T6963C_Write_Text_Adv_ROM_text+2 
	MOVLW       56
	MOVWF       FARG_T6963C_Write_Text_Adv_ROM_x+0 
	MOVLW       40
	MOVWF       FARG_T6963C_Write_Text_Adv_ROM_y+0 
	CALL        _T6963C_Write_Text_Adv_ROM+0, 0
;EEPROM_Data.c,129 :: 		T6963C_Write_Text_Adv_ROM("REVISED UPDATED",60,56);
	MOVLW       ?lstr_4_EEPROM_Data+0
	MOVWF       FARG_T6963C_Write_Text_Adv_ROM_text+0 
	MOVLW       hi_addr(?lstr_4_EEPROM_Data+0)
	MOVWF       FARG_T6963C_Write_Text_Adv_ROM_text+1 
	MOVLW       higher_addr(?lstr_4_EEPROM_Data+0)
	MOVWF       FARG_T6963C_Write_Text_Adv_ROM_text+2 
	MOVLW       60
	MOVWF       FARG_T6963C_Write_Text_Adv_ROM_x+0 
	MOVLW       56
	MOVWF       FARG_T6963C_Write_Text_Adv_ROM_y+0 
	CALL        _T6963C_Write_Text_Adv_ROM+0, 0
;EEPROM_Data.c,130 :: 		T6963C_Write_Text_Adv_ROM("VERSION 1.1_2026_JAN",40,72);
	MOVLW       ?lstr_5_EEPROM_Data+0
	MOVWF       FARG_T6963C_Write_Text_Adv_ROM_text+0 
	MOVLW       hi_addr(?lstr_5_EEPROM_Data+0)
	MOVWF       FARG_T6963C_Write_Text_Adv_ROM_text+1 
	MOVLW       higher_addr(?lstr_5_EEPROM_Data+0)
	MOVWF       FARG_T6963C_Write_Text_Adv_ROM_text+2 
	MOVLW       40
	MOVWF       FARG_T6963C_Write_Text_Adv_ROM_x+0 
	MOVLW       72
	MOVWF       FARG_T6963C_Write_Text_Adv_ROM_y+0 
	CALL        _T6963C_Write_Text_Adv_ROM+0, 0
;EEPROM_Data.c,131 :: 		T6963C_Write_Text_Adv_ROM("LOADING...",80,88);
	MOVLW       ?lstr_6_EEPROM_Data+0
	MOVWF       FARG_T6963C_Write_Text_Adv_ROM_text+0 
	MOVLW       hi_addr(?lstr_6_EEPROM_Data+0)
	MOVWF       FARG_T6963C_Write_Text_Adv_ROM_text+1 
	MOVLW       higher_addr(?lstr_6_EEPROM_Data+0)
	MOVWF       FARG_T6963C_Write_Text_Adv_ROM_text+2 
	MOVLW       80
	MOVWF       FARG_T6963C_Write_Text_Adv_ROM_x+0 
	MOVLW       88
	MOVWF       FARG_T6963C_Write_Text_Adv_ROM_y+0 
	CALL        _T6963C_Write_Text_Adv_ROM+0, 0
;EEPROM_Data.c,132 :: 		delay_ms(4000);
	MOVLW       2
	MOVWF       R10, 0
	MOVLW       69
	MOVWF       R11, 0
	MOVLW       173
	MOVWF       R12, 0
	MOVLW       5
	MOVWF       R13, 0
L_LOAD_EEPROM_Param5:
	DECFSZ      R13, 1, 1
	BRA         L_LOAD_EEPROM_Param5
	DECFSZ      R12, 1, 1
	BRA         L_LOAD_EEPROM_Param5
	DECFSZ      R11, 1, 1
	BRA         L_LOAD_EEPROM_Param5
	DECFSZ      R10, 1, 1
	BRA         L_LOAD_EEPROM_Param5
	NOP
	NOP
;EEPROM_Data.c,136 :: 		}
L_LOAD_EEPROM_Param1:
;EEPROM_Data.c,137 :: 		load_data();
	CALL        _load_data+0, 0
;EEPROM_Data.c,138 :: 		delay_ms(1000);
	MOVLW       82
	MOVWF       R11, 0
	MOVLW       43
	MOVWF       R12, 0
	MOVLW       0
	MOVWF       R13, 0
L_LOAD_EEPROM_Param6:
	DECFSZ      R13, 1, 1
	BRA         L_LOAD_EEPROM_Param6
	DECFSZ      R12, 1, 1
	BRA         L_LOAD_EEPROM_Param6
	DECFSZ      R11, 1, 1
	BRA         L_LOAD_EEPROM_Param6
	NOP
;EEPROM_Data.c,167 :: 		}
L_end_LOAD_EEPROM_Param:
	RETURN      0
; end of _LOAD_EEPROM_Param

_FirstTime_EEPROM_Param:

;EEPROM_Data.c,172 :: 		void FirstTime_EEPROM_Param(void)
;EEPROM_Data.c,174 :: 		unsigned int temp=0,i=0;
	CLRF        FirstTime_EEPROM_Param_i_L0+0 
	CLRF        FirstTime_EEPROM_Param_i_L0+1 
;EEPROM_Data.c,176 :: 		T6963C_PanelFill(0);
	CLRF        FARG_T6963C_fill_v+0 
	CLRF        FARG_T6963C_fill_start+0 
	CLRF        FARG_T6963C_fill_start+1 
	MOVF        _T6963C_txtMemSize+0, 0 
	ADDWF       _T6963C_grMemSize+0, 0 
	MOVWF       FARG_T6963C_fill_len+0 
	MOVF        _T6963C_txtMemSize+1, 0 
	ADDWFC      _T6963C_grMemSize+1, 0 
	MOVWF       FARG_T6963C_fill_len+1 
	CALL        _T6963C_fill+0, 0
;EEPROM_Data.c,177 :: 		EEPROM_Write(First_Time_addr, 0x88);
	MOVLW       15
	MOVWF       FARG_Eeprom_Write_address+0 
	MOVLW       0
	MOVWF       FARG_Eeprom_Write_address+1 
	MOVLW       136
	MOVWF       FARG_Eeprom_Write_data_+0 
	CALL        _Eeprom_Write+0, 0
;EEPROM_Data.c,178 :: 		delay_ms(30);
	MOVLW       3
	MOVWF       R11, 0
	MOVLW       112
	MOVWF       R12, 0
	MOVLW       92
	MOVWF       R13, 0
L_FirstTime_EEPROM_Param7:
	DECFSZ      R13, 1, 1
	BRA         L_FirstTime_EEPROM_Param7
	DECFSZ      R12, 1, 1
	BRA         L_FirstTime_EEPROM_Param7
	DECFSZ      R11, 1, 1
	BRA         L_FirstTime_EEPROM_Param7
	NOP
;EEPROM_Data.c,180 :: 		T6963C_PanelFill(0);
	CLRF        FARG_T6963C_fill_v+0 
	CLRF        FARG_T6963C_fill_start+0 
	CLRF        FARG_T6963C_fill_start+1 
	MOVF        _T6963C_txtMemSize+0, 0 
	ADDWF       _T6963C_grMemSize+0, 0 
	MOVWF       FARG_T6963C_fill_len+0 
	MOVF        _T6963C_txtMemSize+1, 0 
	ADDWFC      _T6963C_grMemSize+1, 0 
	MOVWF       FARG_T6963C_fill_len+1 
	CALL        _T6963C_fill+0, 0
;EEPROM_Data.c,181 :: 		T6963C_Write_Text_Adv_ROM("FIRST TIME",80,56);
	MOVLW       ?lstr_7_EEPROM_Data+0
	MOVWF       FARG_T6963C_Write_Text_Adv_ROM_text+0 
	MOVLW       hi_addr(?lstr_7_EEPROM_Data+0)
	MOVWF       FARG_T6963C_Write_Text_Adv_ROM_text+1 
	MOVLW       higher_addr(?lstr_7_EEPROM_Data+0)
	MOVWF       FARG_T6963C_Write_Text_Adv_ROM_text+2 
	MOVLW       80
	MOVWF       FARG_T6963C_Write_Text_Adv_ROM_x+0 
	MOVLW       56
	MOVWF       FARG_T6963C_Write_Text_Adv_ROM_y+0 
	CALL        _T6963C_Write_Text_Adv_ROM+0, 0
;EEPROM_Data.c,182 :: 		delay_ms(2000);
	MOVLW       163
	MOVWF       R11, 0
	MOVLW       87
	MOVWF       R12, 0
	MOVLW       2
	MOVWF       R13, 0
L_FirstTime_EEPROM_Param8:
	DECFSZ      R13, 1, 1
	BRA         L_FirstTime_EEPROM_Param8
	DECFSZ      R12, 1, 1
	BRA         L_FirstTime_EEPROM_Param8
	DECFSZ      R11, 1, 1
	BRA         L_FirstTime_EEPROM_Param8
	NOP
;EEPROM_Data.c,185 :: 		PEIE_bit  = 0;
	BCF         PEIE_bit+0, BitPos(PEIE_bit+0) 
;EEPROM_Data.c,186 :: 		GIE_bit   = 0;
	BCF         GIE_bit+0, BitPos(GIE_bit+0) 
;EEPROM_Data.c,190 :: 		T6963C_rectangle(80,104, 160, 90 , T6963C_WHITE); //FOR ANMIATION OUTER BOX
	MOVLW       80
	MOVWF       FARG_T6963C_rectangle_x0+0 
	MOVLW       0
	MOVWF       FARG_T6963C_rectangle_x0+1 
	MOVLW       104
	MOVWF       FARG_T6963C_rectangle_y0+0 
	MOVLW       0
	MOVWF       FARG_T6963C_rectangle_y0+1 
	MOVLW       160
	MOVWF       FARG_T6963C_rectangle_x1+0 
	MOVLW       0
	MOVWF       FARG_T6963C_rectangle_x1+1 
	MOVLW       90
	MOVWF       FARG_T6963C_rectangle_y1+0 
	MOVLW       0
	MOVWF       FARG_T6963C_rectangle_y1+1 
	MOVLW       8
	MOVWF       FARG_T6963C_rectangle_pcolor+0 
	CALL        _T6963C_rectangle+0, 0
;EEPROM_Data.c,193 :: 		asm CLRWDT;
	CLRWDT
;EEPROM_Data.c,195 :: 		Loading_Fill(1);
	MOVLW       1
	MOVWF       FARG_Loading_Fill_percent+0 
	CALL        _Loading_Fill+0, 0
;EEPROM_Data.c,196 :: 		EEPROM_Write(Shift_addr,0);
	MOVLW       8
	MOVWF       FARG_Eeprom_Write_address+0 
	MOVLW       0
	MOVWF       FARG_Eeprom_Write_address+1 
	CLRF        FARG_Eeprom_Write_data_+0 
	CALL        _Eeprom_Write+0, 0
;EEPROM_Data.c,197 :: 		delay_ms(5);
	MOVLW       104
	MOVWF       R12, 0
	MOVLW       228
	MOVWF       R13, 0
L_FirstTime_EEPROM_Param9:
	DECFSZ      R13, 1, 1
	BRA         L_FirstTime_EEPROM_Param9
	DECFSZ      R12, 1, 1
	BRA         L_FirstTime_EEPROM_Param9
	NOP
;EEPROM_Data.c,198 :: 		Loading_Fill(2);
	MOVLW       2
	MOVWF       FARG_Loading_Fill_percent+0 
	CALL        _Loading_Fill+0, 0
;EEPROM_Data.c,199 :: 		EEPROM_Write(Mode_addr,0);
	MOVLW       9
	MOVWF       FARG_Eeprom_Write_address+0 
	MOVLW       0
	MOVWF       FARG_Eeprom_Write_address+1 
	CLRF        FARG_Eeprom_Write_data_+0 
	CALL        _Eeprom_Write+0, 0
;EEPROM_Data.c,200 :: 		delay_ms(5);
	MOVLW       104
	MOVWF       R12, 0
	MOVLW       228
	MOVWF       R13, 0
L_FirstTime_EEPROM_Param10:
	DECFSZ      R13, 1, 1
	BRA         L_FirstTime_EEPROM_Param10
	DECFSZ      R12, 1, 1
	BRA         L_FirstTime_EEPROM_Param10
	NOP
;EEPROM_Data.c,202 :: 		for(i=0;i<16;i++)
	CLRF        FirstTime_EEPROM_Param_i_L0+0 
	CLRF        FirstTime_EEPROM_Param_i_L0+1 
L_FirstTime_EEPROM_Param11:
	MOVLW       0
	SUBWF       FirstTime_EEPROM_Param_i_L0+1, 0 
	BTFSS       STATUS+0, 2 
	GOTO        L__FirstTime_EEPROM_Param232
	MOVLW       16
	SUBWF       FirstTime_EEPROM_Param_i_L0+0, 0 
L__FirstTime_EEPROM_Param232:
	BTFSC       STATUS+0, 0 
	GOTO        L_FirstTime_EEPROM_Param12
;EEPROM_Data.c,205 :: 		Loading_Fill(i+3);//from 3 to 18
	MOVLW       3
	ADDWF       FirstTime_EEPROM_Param_i_L0+0, 0 
	MOVWF       FARG_Loading_Fill_percent+0 
	CALL        _Loading_Fill+0, 0
;EEPROM_Data.c,206 :: 		EEPROM_Write((Picks4inchA_addr+i),(1*(i+1)));// CHECKING PURPOSE LOGIC SETTED
	MOVLW       16
	ADDWF       FirstTime_EEPROM_Param_i_L0+0, 0 
	MOVWF       FARG_Eeprom_Write_address+0 
	MOVLW       0
	ADDWFC      FirstTime_EEPROM_Param_i_L0+1, 0 
	MOVWF       FARG_Eeprom_Write_address+1 
	MOVF        FirstTime_EEPROM_Param_i_L0+0, 0 
	ADDLW       1
	MOVWF       FARG_Eeprom_Write_data_+0 
	CALL        _Eeprom_Write+0, 0
;EEPROM_Data.c,207 :: 		delay_ms(5);                             //NAVEEN CHANGED
	MOVLW       104
	MOVWF       R12, 0
	MOVLW       228
	MOVWF       R13, 0
L_FirstTime_EEPROM_Param14:
	DECFSZ      R13, 1, 1
	BRA         L_FirstTime_EEPROM_Param14
	DECFSZ      R12, 1, 1
	BRA         L_FirstTime_EEPROM_Param14
	NOP
;EEPROM_Data.c,202 :: 		for(i=0;i<16;i++)
	INFSNZ      FirstTime_EEPROM_Param_i_L0+0, 1 
	INCF        FirstTime_EEPROM_Param_i_L0+1, 1 
;EEPROM_Data.c,208 :: 		}
	GOTO        L_FirstTime_EEPROM_Param11
L_FirstTime_EEPROM_Param12:
;EEPROM_Data.c,209 :: 		asm CLRWDT;
	CLRWDT
;EEPROM_Data.c,211 :: 		for(i=0;i<16;i++)
	CLRF        FirstTime_EEPROM_Param_i_L0+0 
	CLRF        FirstTime_EEPROM_Param_i_L0+1 
L_FirstTime_EEPROM_Param15:
	MOVLW       0
	SUBWF       FirstTime_EEPROM_Param_i_L0+1, 0 
	BTFSS       STATUS+0, 2 
	GOTO        L__FirstTime_EEPROM_Param233
	MOVLW       16
	SUBWF       FirstTime_EEPROM_Param_i_L0+0, 0 
L__FirstTime_EEPROM_Param233:
	BTFSC       STATUS+0, 0 
	GOTO        L_FirstTime_EEPROM_Param16
;EEPROM_Data.c,213 :: 		Loading_Fill(1+19);//from 19 to 35
	MOVLW       20
	MOVWF       FARG_Loading_Fill_percent+0 
	CALL        _Loading_Fill+0, 0
;EEPROM_Data.c,214 :: 		EEPROM_Write((Pulse_PickA_addr+i),0);
	MOVLW       160
	ADDWF       FirstTime_EEPROM_Param_i_L0+0, 0 
	MOVWF       FARG_Eeprom_Write_address+0 
	MOVLW       3
	ADDWFC      FirstTime_EEPROM_Param_i_L0+1, 0 
	MOVWF       FARG_Eeprom_Write_address+1 
	CLRF        FARG_Eeprom_Write_data_+0 
	CALL        _Eeprom_Write+0, 0
;EEPROM_Data.c,215 :: 		delay_ms(5);                            //NAVEEN CHANGED
	MOVLW       104
	MOVWF       R12, 0
	MOVLW       228
	MOVWF       R13, 0
L_FirstTime_EEPROM_Param18:
	DECFSZ      R13, 1, 1
	BRA         L_FirstTime_EEPROM_Param18
	DECFSZ      R12, 1, 1
	BRA         L_FirstTime_EEPROM_Param18
	NOP
;EEPROM_Data.c,211 :: 		for(i=0;i<16;i++)
	INFSNZ      FirstTime_EEPROM_Param_i_L0+0, 1 
	INCF        FirstTime_EEPROM_Param_i_L0+1, 1 
;EEPROM_Data.c,216 :: 		}
	GOTO        L_FirstTime_EEPROM_Param15
L_FirstTime_EEPROM_Param16:
;EEPROM_Data.c,217 :: 		asm CLRWDT;
	CLRWDT
;EEPROM_Data.c,219 :: 		for(i=0;i<96;i++)
	CLRF        FirstTime_EEPROM_Param_i_L0+0 
	CLRF        FirstTime_EEPROM_Param_i_L0+1 
L_FirstTime_EEPROM_Param19:
	MOVLW       0
	SUBWF       FirstTime_EEPROM_Param_i_L0+1, 0 
	BTFSS       STATUS+0, 2 
	GOTO        L__FirstTime_EEPROM_Param234
	MOVLW       96
	SUBWF       FirstTime_EEPROM_Param_i_L0+0, 0 
L__FirstTime_EEPROM_Param234:
	BTFSC       STATUS+0, 0 
	GOTO        L_FirstTime_EEPROM_Param20
;EEPROM_Data.c,221 :: 		Loading_Fill(35+ ( (i*15) /95) )  ;
	MOVF        FirstTime_EEPROM_Param_i_L0+0, 0 
	MOVWF       R0 
	MOVF        FirstTime_EEPROM_Param_i_L0+1, 0 
	MOVWF       R1 
	MOVLW       15
	MOVWF       R4 
	MOVLW       0
	MOVWF       R5 
	CALL        _Mul_16X16_U+0, 0
	MOVLW       95
	MOVWF       R4 
	MOVLW       0
	MOVWF       R5 
	CALL        _Div_16X16_U+0, 0
	MOVF        R0, 0 
	ADDLW       35
	MOVWF       FARG_Loading_Fill_percent+0 
	CALL        _Loading_Fill+0, 0
;EEPROM_Data.c,222 :: 		EEPROM_AT24C32_WrInt((InchA_addr+(2*i)),0);
	MOVF        FirstTime_EEPROM_Param_i_L0+0, 0 
	MOVWF       R0 
	MOVF        FirstTime_EEPROM_Param_i_L0+1, 0 
	MOVWF       R1 
	RLCF        R0, 1 
	BCF         R0, 0 
	RLCF        R1, 1 
	MOVLW       16
	ADDWF       R0, 0 
	MOVWF       FARG_EEPROM_AT24C32_WrInt_wAddr+0 
	MOVLW       0
	ADDWFC      R1, 0 
	MOVWF       FARG_EEPROM_AT24C32_WrInt_wAddr+1 
	CLRF        FARG_EEPROM_AT24C32_WrInt_wData+0 
	CLRF        FARG_EEPROM_AT24C32_WrInt_wData+1 
	CALL        _EEPROM_AT24C32_WrInt+0, 0
;EEPROM_Data.c,223 :: 		delay_ms(5);
	MOVLW       104
	MOVWF       R12, 0
	MOVLW       228
	MOVWF       R13, 0
L_FirstTime_EEPROM_Param22:
	DECFSZ      R13, 1, 1
	BRA         L_FirstTime_EEPROM_Param22
	DECFSZ      R12, 1, 1
	BRA         L_FirstTime_EEPROM_Param22
	NOP
;EEPROM_Data.c,224 :: 		EEPROM_AT24C32_WrInt((InchB_addr+(2*i)),0);
	MOVF        FirstTime_EEPROM_Param_i_L0+0, 0 
	MOVWF       R0 
	MOVF        FirstTime_EEPROM_Param_i_L0+1, 0 
	MOVWF       R1 
	RLCF        R0, 1 
	BCF         R0, 0 
	RLCF        R1, 1 
	MOVLW       208
	ADDWF       R0, 0 
	MOVWF       FARG_EEPROM_AT24C32_WrInt_wAddr+0 
	MOVLW       0
	ADDWFC      R1, 0 
	MOVWF       FARG_EEPROM_AT24C32_WrInt_wAddr+1 
	CLRF        FARG_EEPROM_AT24C32_WrInt_wData+0 
	CLRF        FARG_EEPROM_AT24C32_WrInt_wData+1 
	CALL        _EEPROM_AT24C32_WrInt+0, 0
;EEPROM_Data.c,225 :: 		delay_ms(5);
	MOVLW       104
	MOVWF       R12, 0
	MOVLW       228
	MOVWF       R13, 0
L_FirstTime_EEPROM_Param23:
	DECFSZ      R13, 1, 1
	BRA         L_FirstTime_EEPROM_Param23
	DECFSZ      R12, 1, 1
	BRA         L_FirstTime_EEPROM_Param23
	NOP
;EEPROM_Data.c,226 :: 		EEPROM_AT24C32_WrInt((InchC_addr+(2*i)),0);
	MOVF        FirstTime_EEPROM_Param_i_L0+0, 0 
	MOVWF       R0 
	MOVF        FirstTime_EEPROM_Param_i_L0+1, 0 
	MOVWF       R1 
	RLCF        R0, 1 
	BCF         R0, 0 
	RLCF        R1, 1 
	MOVLW       144
	ADDWF       R0, 0 
	MOVWF       FARG_EEPROM_AT24C32_WrInt_wAddr+0 
	MOVLW       1
	ADDWFC      R1, 0 
	MOVWF       FARG_EEPROM_AT24C32_WrInt_wAddr+1 
	CLRF        FARG_EEPROM_AT24C32_WrInt_wData+0 
	CLRF        FARG_EEPROM_AT24C32_WrInt_wData+1 
	CALL        _EEPROM_AT24C32_WrInt+0, 0
;EEPROM_Data.c,227 :: 		delay_ms(5);
	MOVLW       104
	MOVWF       R12, 0
	MOVLW       228
	MOVWF       R13, 0
L_FirstTime_EEPROM_Param24:
	DECFSZ      R13, 1, 1
	BRA         L_FirstTime_EEPROM_Param24
	DECFSZ      R12, 1, 1
	BRA         L_FirstTime_EEPROM_Param24
	NOP
;EEPROM_Data.c,228 :: 		EEPROM_AT24C32_WrInt((InchD_addr+(2*i)),0);
	MOVF        FirstTime_EEPROM_Param_i_L0+0, 0 
	MOVWF       R0 
	MOVF        FirstTime_EEPROM_Param_i_L0+1, 0 
	MOVWF       R1 
	RLCF        R0, 1 
	BCF         R0, 0 
	RLCF        R1, 1 
	MOVLW       80
	ADDWF       R0, 0 
	MOVWF       FARG_EEPROM_AT24C32_WrInt_wAddr+0 
	MOVLW       2
	ADDWFC      R1, 0 
	MOVWF       FARG_EEPROM_AT24C32_WrInt_wAddr+1 
	CLRF        FARG_EEPROM_AT24C32_WrInt_wData+0 
	CLRF        FARG_EEPROM_AT24C32_WrInt_wData+1 
	CALL        _EEPROM_AT24C32_WrInt+0, 0
;EEPROM_Data.c,229 :: 		delay_ms(5);
	MOVLW       104
	MOVWF       R12, 0
	MOVLW       228
	MOVWF       R13, 0
L_FirstTime_EEPROM_Param25:
	DECFSZ      R13, 1, 1
	BRA         L_FirstTime_EEPROM_Param25
	DECFSZ      R12, 1, 1
	BRA         L_FirstTime_EEPROM_Param25
	NOP
;EEPROM_Data.c,230 :: 		EEPROM_AT24C32_WrInt((InchE_addr+(2*i)),0);
	MOVF        FirstTime_EEPROM_Param_i_L0+0, 0 
	MOVWF       R0 
	MOVF        FirstTime_EEPROM_Param_i_L0+1, 0 
	MOVWF       R1 
	RLCF        R0, 1 
	BCF         R0, 0 
	RLCF        R1, 1 
	MOVLW       16
	ADDWF       R0, 0 
	MOVWF       FARG_EEPROM_AT24C32_WrInt_wAddr+0 
	MOVLW       3
	ADDWFC      R1, 0 
	MOVWF       FARG_EEPROM_AT24C32_WrInt_wAddr+1 
	CLRF        FARG_EEPROM_AT24C32_WrInt_wData+0 
	CLRF        FARG_EEPROM_AT24C32_WrInt_wData+1 
	CALL        _EEPROM_AT24C32_WrInt+0, 0
;EEPROM_Data.c,231 :: 		delay_ms(5);
	MOVLW       104
	MOVWF       R12, 0
	MOVLW       228
	MOVWF       R13, 0
L_FirstTime_EEPROM_Param26:
	DECFSZ      R13, 1, 1
	BRA         L_FirstTime_EEPROM_Param26
	DECFSZ      R12, 1, 1
	BRA         L_FirstTime_EEPROM_Param26
	NOP
;EEPROM_Data.c,232 :: 		EEPROM_AT24C32_WrInt((InchF_addr+(2*i)),0);
	MOVF        FirstTime_EEPROM_Param_i_L0+0, 0 
	MOVWF       R0 
	MOVF        FirstTime_EEPROM_Param_i_L0+1, 0 
	MOVWF       R1 
	RLCF        R0, 1 
	BCF         R0, 0 
	RLCF        R1, 1 
	MOVLW       208
	ADDWF       R0, 0 
	MOVWF       FARG_EEPROM_AT24C32_WrInt_wAddr+0 
	MOVLW       3
	ADDWFC      R1, 0 
	MOVWF       FARG_EEPROM_AT24C32_WrInt_wAddr+1 
	CLRF        FARG_EEPROM_AT24C32_WrInt_wData+0 
	CLRF        FARG_EEPROM_AT24C32_WrInt_wData+1 
	CALL        _EEPROM_AT24C32_WrInt+0, 0
;EEPROM_Data.c,233 :: 		delay_ms(5);
	MOVLW       104
	MOVWF       R12, 0
	MOVLW       228
	MOVWF       R13, 0
L_FirstTime_EEPROM_Param27:
	DECFSZ      R13, 1, 1
	BRA         L_FirstTime_EEPROM_Param27
	DECFSZ      R12, 1, 1
	BRA         L_FirstTime_EEPROM_Param27
	NOP
;EEPROM_Data.c,234 :: 		EEPROM_AT24C32_WrInt((InchG_addr+(2*i)),0);
	MOVF        FirstTime_EEPROM_Param_i_L0+0, 0 
	MOVWF       R0 
	MOVF        FirstTime_EEPROM_Param_i_L0+1, 0 
	MOVWF       R1 
	RLCF        R0, 1 
	BCF         R0, 0 
	RLCF        R1, 1 
	MOVLW       144
	ADDWF       R0, 0 
	MOVWF       FARG_EEPROM_AT24C32_WrInt_wAddr+0 
	MOVLW       4
	ADDWFC      R1, 0 
	MOVWF       FARG_EEPROM_AT24C32_WrInt_wAddr+1 
	CLRF        FARG_EEPROM_AT24C32_WrInt_wData+0 
	CLRF        FARG_EEPROM_AT24C32_WrInt_wData+1 
	CALL        _EEPROM_AT24C32_WrInt+0, 0
;EEPROM_Data.c,235 :: 		delay_ms(5);
	MOVLW       104
	MOVWF       R12, 0
	MOVLW       228
	MOVWF       R13, 0
L_FirstTime_EEPROM_Param28:
	DECFSZ      R13, 1, 1
	BRA         L_FirstTime_EEPROM_Param28
	DECFSZ      R12, 1, 1
	BRA         L_FirstTime_EEPROM_Param28
	NOP
;EEPROM_Data.c,236 :: 		EEPROM_AT24C32_WrInt((InchH_addr+(2*i)),0);
	MOVF        FirstTime_EEPROM_Param_i_L0+0, 0 
	MOVWF       R0 
	MOVF        FirstTime_EEPROM_Param_i_L0+1, 0 
	MOVWF       R1 
	RLCF        R0, 1 
	BCF         R0, 0 
	RLCF        R1, 1 
	MOVLW       80
	ADDWF       R0, 0 
	MOVWF       FARG_EEPROM_AT24C32_WrInt_wAddr+0 
	MOVLW       5
	ADDWFC      R1, 0 
	MOVWF       FARG_EEPROM_AT24C32_WrInt_wAddr+1 
	CLRF        FARG_EEPROM_AT24C32_WrInt_wData+0 
	CLRF        FARG_EEPROM_AT24C32_WrInt_wData+1 
	CALL        _EEPROM_AT24C32_WrInt+0, 0
;EEPROM_Data.c,237 :: 		delay_ms(5);
	MOVLW       104
	MOVWF       R12, 0
	MOVLW       228
	MOVWF       R13, 0
L_FirstTime_EEPROM_Param29:
	DECFSZ      R13, 1, 1
	BRA         L_FirstTime_EEPROM_Param29
	DECFSZ      R12, 1, 1
	BRA         L_FirstTime_EEPROM_Param29
	NOP
;EEPROM_Data.c,238 :: 		EEPROM_AT24C32_WrInt((InchI_addr+(2*i)),0);
	MOVF        FirstTime_EEPROM_Param_i_L0+0, 0 
	MOVWF       R0 
	MOVF        FirstTime_EEPROM_Param_i_L0+1, 0 
	MOVWF       R1 
	RLCF        R0, 1 
	BCF         R0, 0 
	RLCF        R1, 1 
	MOVLW       16
	ADDWF       R0, 0 
	MOVWF       FARG_EEPROM_AT24C32_WrInt_wAddr+0 
	MOVLW       6
	ADDWFC      R1, 0 
	MOVWF       FARG_EEPROM_AT24C32_WrInt_wAddr+1 
	CLRF        FARG_EEPROM_AT24C32_WrInt_wData+0 
	CLRF        FARG_EEPROM_AT24C32_WrInt_wData+1 
	CALL        _EEPROM_AT24C32_WrInt+0, 0
;EEPROM_Data.c,239 :: 		delay_ms(5);
	MOVLW       104
	MOVWF       R12, 0
	MOVLW       228
	MOVWF       R13, 0
L_FirstTime_EEPROM_Param30:
	DECFSZ      R13, 1, 1
	BRA         L_FirstTime_EEPROM_Param30
	DECFSZ      R12, 1, 1
	BRA         L_FirstTime_EEPROM_Param30
	NOP
;EEPROM_Data.c,240 :: 		EEPROM_AT24C32_WrInt((InchJ_addr+(2*i)),0);
	MOVF        FirstTime_EEPROM_Param_i_L0+0, 0 
	MOVWF       R0 
	MOVF        FirstTime_EEPROM_Param_i_L0+1, 0 
	MOVWF       R1 
	RLCF        R0, 1 
	BCF         R0, 0 
	RLCF        R1, 1 
	MOVLW       208
	ADDWF       R0, 0 
	MOVWF       FARG_EEPROM_AT24C32_WrInt_wAddr+0 
	MOVLW       6
	ADDWFC      R1, 0 
	MOVWF       FARG_EEPROM_AT24C32_WrInt_wAddr+1 
	CLRF        FARG_EEPROM_AT24C32_WrInt_wData+0 
	CLRF        FARG_EEPROM_AT24C32_WrInt_wData+1 
	CALL        _EEPROM_AT24C32_WrInt+0, 0
;EEPROM_Data.c,241 :: 		delay_ms(5);
	MOVLW       104
	MOVWF       R12, 0
	MOVLW       228
	MOVWF       R13, 0
L_FirstTime_EEPROM_Param31:
	DECFSZ      R13, 1, 1
	BRA         L_FirstTime_EEPROM_Param31
	DECFSZ      R12, 1, 1
	BRA         L_FirstTime_EEPROM_Param31
	NOP
;EEPROM_Data.c,242 :: 		EEPROM_AT24C32_WrInt((InchK_addr+(2*i)),0);
	MOVF        FirstTime_EEPROM_Param_i_L0+0, 0 
	MOVWF       R0 
	MOVF        FirstTime_EEPROM_Param_i_L0+1, 0 
	MOVWF       R1 
	RLCF        R0, 1 
	BCF         R0, 0 
	RLCF        R1, 1 
	MOVLW       144
	ADDWF       R0, 0 
	MOVWF       FARG_EEPROM_AT24C32_WrInt_wAddr+0 
	MOVLW       7
	ADDWFC      R1, 0 
	MOVWF       FARG_EEPROM_AT24C32_WrInt_wAddr+1 
	CLRF        FARG_EEPROM_AT24C32_WrInt_wData+0 
	CLRF        FARG_EEPROM_AT24C32_WrInt_wData+1 
	CALL        _EEPROM_AT24C32_WrInt+0, 0
;EEPROM_Data.c,243 :: 		delay_ms(5);
	MOVLW       104
	MOVWF       R12, 0
	MOVLW       228
	MOVWF       R13, 0
L_FirstTime_EEPROM_Param32:
	DECFSZ      R13, 1, 1
	BRA         L_FirstTime_EEPROM_Param32
	DECFSZ      R12, 1, 1
	BRA         L_FirstTime_EEPROM_Param32
	NOP
;EEPROM_Data.c,244 :: 		EEPROM_AT24C32_WrInt((InchL_addr+(2*i)),0);
	MOVF        FirstTime_EEPROM_Param_i_L0+0, 0 
	MOVWF       R0 
	MOVF        FirstTime_EEPROM_Param_i_L0+1, 0 
	MOVWF       R1 
	RLCF        R0, 1 
	BCF         R0, 0 
	RLCF        R1, 1 
	MOVLW       80
	ADDWF       R0, 0 
	MOVWF       FARG_EEPROM_AT24C32_WrInt_wAddr+0 
	MOVLW       8
	ADDWFC      R1, 0 
	MOVWF       FARG_EEPROM_AT24C32_WrInt_wAddr+1 
	CLRF        FARG_EEPROM_AT24C32_WrInt_wData+0 
	CLRF        FARG_EEPROM_AT24C32_WrInt_wData+1 
	CALL        _EEPROM_AT24C32_WrInt+0, 0
;EEPROM_Data.c,245 :: 		delay_ms(5);
	MOVLW       104
	MOVWF       R12, 0
	MOVLW       228
	MOVWF       R13, 0
L_FirstTime_EEPROM_Param33:
	DECFSZ      R13, 1, 1
	BRA         L_FirstTime_EEPROM_Param33
	DECFSZ      R12, 1, 1
	BRA         L_FirstTime_EEPROM_Param33
	NOP
;EEPROM_Data.c,246 :: 		EEPROM_AT24C32_WrInt((InchM_addr+(2*i)),0);
	MOVF        FirstTime_EEPROM_Param_i_L0+0, 0 
	MOVWF       R0 
	MOVF        FirstTime_EEPROM_Param_i_L0+1, 0 
	MOVWF       R1 
	RLCF        R0, 1 
	BCF         R0, 0 
	RLCF        R1, 1 
	MOVLW       16
	ADDWF       R0, 0 
	MOVWF       FARG_EEPROM_AT24C32_WrInt_wAddr+0 
	MOVLW       9
	ADDWFC      R1, 0 
	MOVWF       FARG_EEPROM_AT24C32_WrInt_wAddr+1 
	CLRF        FARG_EEPROM_AT24C32_WrInt_wData+0 
	CLRF        FARG_EEPROM_AT24C32_WrInt_wData+1 
	CALL        _EEPROM_AT24C32_WrInt+0, 0
;EEPROM_Data.c,247 :: 		delay_ms(5);
	MOVLW       104
	MOVWF       R12, 0
	MOVLW       228
	MOVWF       R13, 0
L_FirstTime_EEPROM_Param34:
	DECFSZ      R13, 1, 1
	BRA         L_FirstTime_EEPROM_Param34
	DECFSZ      R12, 1, 1
	BRA         L_FirstTime_EEPROM_Param34
	NOP
;EEPROM_Data.c,248 :: 		EEPROM_AT24C32_WrInt((InchN_addr+(2*i)),0);
	MOVF        FirstTime_EEPROM_Param_i_L0+0, 0 
	MOVWF       R0 
	MOVF        FirstTime_EEPROM_Param_i_L0+1, 0 
	MOVWF       R1 
	RLCF        R0, 1 
	BCF         R0, 0 
	RLCF        R1, 1 
	MOVLW       208
	ADDWF       R0, 0 
	MOVWF       FARG_EEPROM_AT24C32_WrInt_wAddr+0 
	MOVLW       9
	ADDWFC      R1, 0 
	MOVWF       FARG_EEPROM_AT24C32_WrInt_wAddr+1 
	CLRF        FARG_EEPROM_AT24C32_WrInt_wData+0 
	CLRF        FARG_EEPROM_AT24C32_WrInt_wData+1 
	CALL        _EEPROM_AT24C32_WrInt+0, 0
;EEPROM_Data.c,249 :: 		delay_ms(5);
	MOVLW       104
	MOVWF       R12, 0
	MOVLW       228
	MOVWF       R13, 0
L_FirstTime_EEPROM_Param35:
	DECFSZ      R13, 1, 1
	BRA         L_FirstTime_EEPROM_Param35
	DECFSZ      R12, 1, 1
	BRA         L_FirstTime_EEPROM_Param35
	NOP
;EEPROM_Data.c,250 :: 		EEPROM_AT24C32_WrInt((InchO_addr+(2*i)),0);
	MOVF        FirstTime_EEPROM_Param_i_L0+0, 0 
	MOVWF       R0 
	MOVF        FirstTime_EEPROM_Param_i_L0+1, 0 
	MOVWF       R1 
	RLCF        R0, 1 
	BCF         R0, 0 
	RLCF        R1, 1 
	MOVLW       144
	ADDWF       R0, 0 
	MOVWF       FARG_EEPROM_AT24C32_WrInt_wAddr+0 
	MOVLW       10
	ADDWFC      R1, 0 
	MOVWF       FARG_EEPROM_AT24C32_WrInt_wAddr+1 
	CLRF        FARG_EEPROM_AT24C32_WrInt_wData+0 
	CLRF        FARG_EEPROM_AT24C32_WrInt_wData+1 
	CALL        _EEPROM_AT24C32_WrInt+0, 0
;EEPROM_Data.c,251 :: 		delay_ms(5);
	MOVLW       104
	MOVWF       R12, 0
	MOVLW       228
	MOVWF       R13, 0
L_FirstTime_EEPROM_Param36:
	DECFSZ      R13, 1, 1
	BRA         L_FirstTime_EEPROM_Param36
	DECFSZ      R12, 1, 1
	BRA         L_FirstTime_EEPROM_Param36
	NOP
;EEPROM_Data.c,252 :: 		EEPROM_AT24C32_WrInt((InchP_addr+(2*i)),0);
	MOVF        FirstTime_EEPROM_Param_i_L0+0, 0 
	MOVWF       R0 
	MOVF        FirstTime_EEPROM_Param_i_L0+1, 0 
	MOVWF       R1 
	RLCF        R0, 1 
	BCF         R0, 0 
	RLCF        R1, 1 
	MOVLW       80
	ADDWF       R0, 0 
	MOVWF       FARG_EEPROM_AT24C32_WrInt_wAddr+0 
	MOVLW       11
	ADDWFC      R1, 0 
	MOVWF       FARG_EEPROM_AT24C32_WrInt_wAddr+1 
	CLRF        FARG_EEPROM_AT24C32_WrInt_wData+0 
	CLRF        FARG_EEPROM_AT24C32_WrInt_wData+1 
	CALL        _EEPROM_AT24C32_WrInt+0, 0
;EEPROM_Data.c,253 :: 		delay_ms(5);
	MOVLW       104
	MOVWF       R12, 0
	MOVLW       228
	MOVWF       R13, 0
L_FirstTime_EEPROM_Param37:
	DECFSZ      R13, 1, 1
	BRA         L_FirstTime_EEPROM_Param37
	DECFSZ      R12, 1, 1
	BRA         L_FirstTime_EEPROM_Param37
	NOP
;EEPROM_Data.c,219 :: 		for(i=0;i<96;i++)
	INFSNZ      FirstTime_EEPROM_Param_i_L0+0, 1 
	INCF        FirstTime_EEPROM_Param_i_L0+1, 1 
;EEPROM_Data.c,254 :: 		}
	GOTO        L_FirstTime_EEPROM_Param19
L_FirstTime_EEPROM_Param20:
;EEPROM_Data.c,255 :: 		Loading_Fill(50);
	MOVLW       50
	MOVWF       FARG_Loading_Fill_percent+0 
	CALL        _Loading_Fill+0, 0
;EEPROM_Data.c,257 :: 		asm CLRWDT;
	CLRWDT
;EEPROM_Data.c,258 :: 		for(i=0;i<480;i++)
	CLRF        FirstTime_EEPROM_Param_i_L0+0 
	CLRF        FirstTime_EEPROM_Param_i_L0+1 
L_FirstTime_EEPROM_Param38:
	MOVLW       1
	SUBWF       FirstTime_EEPROM_Param_i_L0+1, 0 
	BTFSS       STATUS+0, 2 
	GOTO        L__FirstTime_EEPROM_Param235
	MOVLW       224
	SUBWF       FirstTime_EEPROM_Param_i_L0+0, 0 
L__FirstTime_EEPROM_Param235:
	BTFSC       STATUS+0, 0 
	GOTO        L_FirstTime_EEPROM_Param39
;EEPROM_Data.c,260 :: 		EEPROM_AT24C32_WrByte((Date_Time_addr)+i,0);
	MOVLW       0
	ADDWF       FirstTime_EEPROM_Param_i_L0+0, 0 
	MOVWF       FARG_EEPROM_AT24C32_WrByte_wAddr+0 
	MOVLW       13
	ADDWFC      FirstTime_EEPROM_Param_i_L0+1, 0 
	MOVWF       FARG_EEPROM_AT24C32_WrByte_wAddr+1 
	CLRF        FARG_EEPROM_AT24C32_WrByte_wData+0 
	CLRF        FARG_EEPROM_AT24C32_WrByte_wData+1 
	CALL        _EEPROM_AT24C32_WrByte+0, 0
;EEPROM_Data.c,261 :: 		delay_ms(5);
	MOVLW       104
	MOVWF       R12, 0
	MOVLW       228
	MOVWF       R13, 0
L_FirstTime_EEPROM_Param41:
	DECFSZ      R13, 1, 1
	BRA         L_FirstTime_EEPROM_Param41
	DECFSZ      R12, 1, 1
	BRA         L_FirstTime_EEPROM_Param41
	NOP
;EEPROM_Data.c,262 :: 		if(i >= 446)
	MOVLW       1
	SUBWF       FirstTime_EEPROM_Param_i_L0+1, 0 
	BTFSS       STATUS+0, 2 
	GOTO        L__FirstTime_EEPROM_Param236
	MOVLW       190
	SUBWF       FirstTime_EEPROM_Param_i_L0+0, 0 
L__FirstTime_EEPROM_Param236:
	BTFSS       STATUS+0, 0 
	GOTO        L_FirstTime_EEPROM_Param42
;EEPROM_Data.c,264 :: 		Loading_Fill(50+ (i-446) );
	MOVLW       190
	SUBWF       FirstTime_EEPROM_Param_i_L0+0, 0 
	MOVWF       R0 
	MOVF        R0, 0 
	ADDLW       50
	MOVWF       FARG_Loading_Fill_percent+0 
	CALL        _Loading_Fill+0, 0
;EEPROM_Data.c,265 :: 		}
L_FirstTime_EEPROM_Param42:
;EEPROM_Data.c,258 :: 		for(i=0;i<480;i++)
	INFSNZ      FirstTime_EEPROM_Param_i_L0+0, 1 
	INCF        FirstTime_EEPROM_Param_i_L0+1, 1 
;EEPROM_Data.c,266 :: 		}
	GOTO        L_FirstTime_EEPROM_Param38
L_FirstTime_EEPROM_Param39:
;EEPROM_Data.c,267 :: 		Loading_Fill(84);
	MOVLW       84
	MOVWF       FARG_Loading_Fill_percent+0 
	CALL        _Loading_Fill+0, 0
;EEPROM_Data.c,268 :: 		asm CLRWDT;
	CLRWDT
;EEPROM_Data.c,269 :: 		EEPROM_Write_int((InchA_addr_Temp),0);
	MOVLW       32
	MOVWF       FARG_EEPROM_Write_int_Addr+0 
	MOVLW       0
	MOVWF       FARG_EEPROM_Write_int_Addr+1 
	CLRF        FARG_EEPROM_Write_int_Data+0 
	CLRF        FARG_EEPROM_Write_int_Data+1 
	CALL        _EEPROM_Write_int+0, 0
;EEPROM_Data.c,270 :: 		Loading_Fill(85);
	MOVLW       85
	MOVWF       FARG_Loading_Fill_percent+0 
	CALL        _Loading_Fill+0, 0
;EEPROM_Data.c,271 :: 		delay_ms(5);
	MOVLW       104
	MOVWF       R12, 0
	MOVLW       228
	MOVWF       R13, 0
L_FirstTime_EEPROM_Param43:
	DECFSZ      R13, 1, 1
	BRA         L_FirstTime_EEPROM_Param43
	DECFSZ      R12, 1, 1
	BRA         L_FirstTime_EEPROM_Param43
	NOP
;EEPROM_Data.c,272 :: 		EEPROM_Write_int((InchB_addr_Temp),0);
	MOVLW       34
	MOVWF       FARG_EEPROM_Write_int_Addr+0 
	MOVLW       0
	MOVWF       FARG_EEPROM_Write_int_Addr+1 
	CLRF        FARG_EEPROM_Write_int_Data+0 
	CLRF        FARG_EEPROM_Write_int_Data+1 
	CALL        _EEPROM_Write_int+0, 0
;EEPROM_Data.c,273 :: 		Loading_Fill(86);
	MOVLW       86
	MOVWF       FARG_Loading_Fill_percent+0 
	CALL        _Loading_Fill+0, 0
;EEPROM_Data.c,274 :: 		delay_ms(5);
	MOVLW       104
	MOVWF       R12, 0
	MOVLW       228
	MOVWF       R13, 0
L_FirstTime_EEPROM_Param44:
	DECFSZ      R13, 1, 1
	BRA         L_FirstTime_EEPROM_Param44
	DECFSZ      R12, 1, 1
	BRA         L_FirstTime_EEPROM_Param44
	NOP
;EEPROM_Data.c,275 :: 		EEPROM_Write_int((InchC_addr_Temp),0);
	MOVLW       36
	MOVWF       FARG_EEPROM_Write_int_Addr+0 
	MOVLW       0
	MOVWF       FARG_EEPROM_Write_int_Addr+1 
	CLRF        FARG_EEPROM_Write_int_Data+0 
	CLRF        FARG_EEPROM_Write_int_Data+1 
	CALL        _EEPROM_Write_int+0, 0
;EEPROM_Data.c,276 :: 		Loading_Fill(87);
	MOVLW       87
	MOVWF       FARG_Loading_Fill_percent+0 
	CALL        _Loading_Fill+0, 0
;EEPROM_Data.c,277 :: 		delay_ms(5);
	MOVLW       104
	MOVWF       R12, 0
	MOVLW       228
	MOVWF       R13, 0
L_FirstTime_EEPROM_Param45:
	DECFSZ      R13, 1, 1
	BRA         L_FirstTime_EEPROM_Param45
	DECFSZ      R12, 1, 1
	BRA         L_FirstTime_EEPROM_Param45
	NOP
;EEPROM_Data.c,278 :: 		EEPROM_Write_int((InchD_addr_Temp),0);
	MOVLW       38
	MOVWF       FARG_EEPROM_Write_int_Addr+0 
	MOVLW       0
	MOVWF       FARG_EEPROM_Write_int_Addr+1 
	CLRF        FARG_EEPROM_Write_int_Data+0 
	CLRF        FARG_EEPROM_Write_int_Data+1 
	CALL        _EEPROM_Write_int+0, 0
;EEPROM_Data.c,279 :: 		Loading_Fill(88);
	MOVLW       88
	MOVWF       FARG_Loading_Fill_percent+0 
	CALL        _Loading_Fill+0, 0
;EEPROM_Data.c,280 :: 		delay_ms(5);
	MOVLW       104
	MOVWF       R12, 0
	MOVLW       228
	MOVWF       R13, 0
L_FirstTime_EEPROM_Param46:
	DECFSZ      R13, 1, 1
	BRA         L_FirstTime_EEPROM_Param46
	DECFSZ      R12, 1, 1
	BRA         L_FirstTime_EEPROM_Param46
	NOP
;EEPROM_Data.c,281 :: 		EEPROM_Write_int((InchE_addr_Temp),0);
	MOVLW       40
	MOVWF       FARG_EEPROM_Write_int_Addr+0 
	MOVLW       0
	MOVWF       FARG_EEPROM_Write_int_Addr+1 
	CLRF        FARG_EEPROM_Write_int_Data+0 
	CLRF        FARG_EEPROM_Write_int_Data+1 
	CALL        _EEPROM_Write_int+0, 0
;EEPROM_Data.c,282 :: 		Loading_Fill(89);
	MOVLW       89
	MOVWF       FARG_Loading_Fill_percent+0 
	CALL        _Loading_Fill+0, 0
;EEPROM_Data.c,283 :: 		delay_ms(5);
	MOVLW       104
	MOVWF       R12, 0
	MOVLW       228
	MOVWF       R13, 0
L_FirstTime_EEPROM_Param47:
	DECFSZ      R13, 1, 1
	BRA         L_FirstTime_EEPROM_Param47
	DECFSZ      R12, 1, 1
	BRA         L_FirstTime_EEPROM_Param47
	NOP
;EEPROM_Data.c,284 :: 		EEPROM_Write_int((InchF_addr_Temp),0);
	MOVLW       42
	MOVWF       FARG_EEPROM_Write_int_Addr+0 
	MOVLW       0
	MOVWF       FARG_EEPROM_Write_int_Addr+1 
	CLRF        FARG_EEPROM_Write_int_Data+0 
	CLRF        FARG_EEPROM_Write_int_Data+1 
	CALL        _EEPROM_Write_int+0, 0
;EEPROM_Data.c,285 :: 		Loading_Fill(90);
	MOVLW       90
	MOVWF       FARG_Loading_Fill_percent+0 
	CALL        _Loading_Fill+0, 0
;EEPROM_Data.c,286 :: 		delay_ms(5);
	MOVLW       104
	MOVWF       R12, 0
	MOVLW       228
	MOVWF       R13, 0
L_FirstTime_EEPROM_Param48:
	DECFSZ      R13, 1, 1
	BRA         L_FirstTime_EEPROM_Param48
	DECFSZ      R12, 1, 1
	BRA         L_FirstTime_EEPROM_Param48
	NOP
;EEPROM_Data.c,287 :: 		EEPROM_Write_int((InchG_addr_Temp),0);
	MOVLW       44
	MOVWF       FARG_EEPROM_Write_int_Addr+0 
	MOVLW       0
	MOVWF       FARG_EEPROM_Write_int_Addr+1 
	CLRF        FARG_EEPROM_Write_int_Data+0 
	CLRF        FARG_EEPROM_Write_int_Data+1 
	CALL        _EEPROM_Write_int+0, 0
;EEPROM_Data.c,288 :: 		Loading_Fill(91);
	MOVLW       91
	MOVWF       FARG_Loading_Fill_percent+0 
	CALL        _Loading_Fill+0, 0
;EEPROM_Data.c,289 :: 		delay_ms(5);
	MOVLW       104
	MOVWF       R12, 0
	MOVLW       228
	MOVWF       R13, 0
L_FirstTime_EEPROM_Param49:
	DECFSZ      R13, 1, 1
	BRA         L_FirstTime_EEPROM_Param49
	DECFSZ      R12, 1, 1
	BRA         L_FirstTime_EEPROM_Param49
	NOP
;EEPROM_Data.c,290 :: 		EEPROM_Write_int((InchH_addr_Temp),0);
	MOVLW       46
	MOVWF       FARG_EEPROM_Write_int_Addr+0 
	MOVLW       0
	MOVWF       FARG_EEPROM_Write_int_Addr+1 
	CLRF        FARG_EEPROM_Write_int_Data+0 
	CLRF        FARG_EEPROM_Write_int_Data+1 
	CALL        _EEPROM_Write_int+0, 0
;EEPROM_Data.c,291 :: 		Loading_Fill(92);
	MOVLW       92
	MOVWF       FARG_Loading_Fill_percent+0 
	CALL        _Loading_Fill+0, 0
;EEPROM_Data.c,292 :: 		delay_ms(5);
	MOVLW       104
	MOVWF       R12, 0
	MOVLW       228
	MOVWF       R13, 0
L_FirstTime_EEPROM_Param50:
	DECFSZ      R13, 1, 1
	BRA         L_FirstTime_EEPROM_Param50
	DECFSZ      R12, 1, 1
	BRA         L_FirstTime_EEPROM_Param50
	NOP
;EEPROM_Data.c,293 :: 		EEPROM_Write_int((InchI_addr_Temp),0);
	MOVLW       48
	MOVWF       FARG_EEPROM_Write_int_Addr+0 
	MOVLW       0
	MOVWF       FARG_EEPROM_Write_int_Addr+1 
	CLRF        FARG_EEPROM_Write_int_Data+0 
	CLRF        FARG_EEPROM_Write_int_Data+1 
	CALL        _EEPROM_Write_int+0, 0
;EEPROM_Data.c,294 :: 		Loading_Fill(93);
	MOVLW       93
	MOVWF       FARG_Loading_Fill_percent+0 
	CALL        _Loading_Fill+0, 0
;EEPROM_Data.c,295 :: 		delay_ms(5);
	MOVLW       104
	MOVWF       R12, 0
	MOVLW       228
	MOVWF       R13, 0
L_FirstTime_EEPROM_Param51:
	DECFSZ      R13, 1, 1
	BRA         L_FirstTime_EEPROM_Param51
	DECFSZ      R12, 1, 1
	BRA         L_FirstTime_EEPROM_Param51
	NOP
;EEPROM_Data.c,296 :: 		EEPROM_Write_int((InchJ_addr_Temp),0);
	MOVLW       50
	MOVWF       FARG_EEPROM_Write_int_Addr+0 
	MOVLW       0
	MOVWF       FARG_EEPROM_Write_int_Addr+1 
	CLRF        FARG_EEPROM_Write_int_Data+0 
	CLRF        FARG_EEPROM_Write_int_Data+1 
	CALL        _EEPROM_Write_int+0, 0
;EEPROM_Data.c,297 :: 		Loading_Fill(94);
	MOVLW       94
	MOVWF       FARG_Loading_Fill_percent+0 
	CALL        _Loading_Fill+0, 0
;EEPROM_Data.c,298 :: 		delay_ms(5);
	MOVLW       104
	MOVWF       R12, 0
	MOVLW       228
	MOVWF       R13, 0
L_FirstTime_EEPROM_Param52:
	DECFSZ      R13, 1, 1
	BRA         L_FirstTime_EEPROM_Param52
	DECFSZ      R12, 1, 1
	BRA         L_FirstTime_EEPROM_Param52
	NOP
;EEPROM_Data.c,299 :: 		EEPROM_Write_int((InchK_addr_Temp),0);
	MOVLW       52
	MOVWF       FARG_EEPROM_Write_int_Addr+0 
	MOVLW       0
	MOVWF       FARG_EEPROM_Write_int_Addr+1 
	CLRF        FARG_EEPROM_Write_int_Data+0 
	CLRF        FARG_EEPROM_Write_int_Data+1 
	CALL        _EEPROM_Write_int+0, 0
;EEPROM_Data.c,300 :: 		Loading_Fill(95);
	MOVLW       95
	MOVWF       FARG_Loading_Fill_percent+0 
	CALL        _Loading_Fill+0, 0
;EEPROM_Data.c,301 :: 		delay_ms(5);
	MOVLW       104
	MOVWF       R12, 0
	MOVLW       228
	MOVWF       R13, 0
L_FirstTime_EEPROM_Param53:
	DECFSZ      R13, 1, 1
	BRA         L_FirstTime_EEPROM_Param53
	DECFSZ      R12, 1, 1
	BRA         L_FirstTime_EEPROM_Param53
	NOP
;EEPROM_Data.c,302 :: 		EEPROM_Write_int((InchL_addr_Temp),0);
	MOVLW       54
	MOVWF       FARG_EEPROM_Write_int_Addr+0 
	MOVLW       0
	MOVWF       FARG_EEPROM_Write_int_Addr+1 
	CLRF        FARG_EEPROM_Write_int_Data+0 
	CLRF        FARG_EEPROM_Write_int_Data+1 
	CALL        _EEPROM_Write_int+0, 0
;EEPROM_Data.c,303 :: 		Loading_Fill(96);
	MOVLW       96
	MOVWF       FARG_Loading_Fill_percent+0 
	CALL        _Loading_Fill+0, 0
;EEPROM_Data.c,304 :: 		delay_ms(5);
	MOVLW       104
	MOVWF       R12, 0
	MOVLW       228
	MOVWF       R13, 0
L_FirstTime_EEPROM_Param54:
	DECFSZ      R13, 1, 1
	BRA         L_FirstTime_EEPROM_Param54
	DECFSZ      R12, 1, 1
	BRA         L_FirstTime_EEPROM_Param54
	NOP
;EEPROM_Data.c,305 :: 		EEPROM_Write_int((InchM_addr_Temp),0);
	MOVLW       56
	MOVWF       FARG_EEPROM_Write_int_Addr+0 
	MOVLW       0
	MOVWF       FARG_EEPROM_Write_int_Addr+1 
	CLRF        FARG_EEPROM_Write_int_Data+0 
	CLRF        FARG_EEPROM_Write_int_Data+1 
	CALL        _EEPROM_Write_int+0, 0
;EEPROM_Data.c,306 :: 		Loading_Fill(97);
	MOVLW       97
	MOVWF       FARG_Loading_Fill_percent+0 
	CALL        _Loading_Fill+0, 0
;EEPROM_Data.c,307 :: 		delay_ms(5);
	MOVLW       104
	MOVWF       R12, 0
	MOVLW       228
	MOVWF       R13, 0
L_FirstTime_EEPROM_Param55:
	DECFSZ      R13, 1, 1
	BRA         L_FirstTime_EEPROM_Param55
	DECFSZ      R12, 1, 1
	BRA         L_FirstTime_EEPROM_Param55
	NOP
;EEPROM_Data.c,308 :: 		EEPROM_Write_int((InchN_addr_Temp),0);
	MOVLW       58
	MOVWF       FARG_EEPROM_Write_int_Addr+0 
	MOVLW       0
	MOVWF       FARG_EEPROM_Write_int_Addr+1 
	CLRF        FARG_EEPROM_Write_int_Data+0 
	CLRF        FARG_EEPROM_Write_int_Data+1 
	CALL        _EEPROM_Write_int+0, 0
;EEPROM_Data.c,309 :: 		Loading_Fill(98);
	MOVLW       98
	MOVWF       FARG_Loading_Fill_percent+0 
	CALL        _Loading_Fill+0, 0
;EEPROM_Data.c,310 :: 		delay_ms(5);
	MOVLW       104
	MOVWF       R12, 0
	MOVLW       228
	MOVWF       R13, 0
L_FirstTime_EEPROM_Param56:
	DECFSZ      R13, 1, 1
	BRA         L_FirstTime_EEPROM_Param56
	DECFSZ      R12, 1, 1
	BRA         L_FirstTime_EEPROM_Param56
	NOP
;EEPROM_Data.c,311 :: 		EEPROM_Write_int((InchO_addr_Temp),0);
	MOVLW       60
	MOVWF       FARG_EEPROM_Write_int_Addr+0 
	MOVLW       0
	MOVWF       FARG_EEPROM_Write_int_Addr+1 
	CLRF        FARG_EEPROM_Write_int_Data+0 
	CLRF        FARG_EEPROM_Write_int_Data+1 
	CALL        _EEPROM_Write_int+0, 0
;EEPROM_Data.c,312 :: 		Loading_Fill(99);
	MOVLW       99
	MOVWF       FARG_Loading_Fill_percent+0 
	CALL        _Loading_Fill+0, 0
;EEPROM_Data.c,313 :: 		delay_ms(5);
	MOVLW       104
	MOVWF       R12, 0
	MOVLW       228
	MOVWF       R13, 0
L_FirstTime_EEPROM_Param57:
	DECFSZ      R13, 1, 1
	BRA         L_FirstTime_EEPROM_Param57
	DECFSZ      R12, 1, 1
	BRA         L_FirstTime_EEPROM_Param57
	NOP
;EEPROM_Data.c,314 :: 		EEPROM_Write_int((InchP_addr_Temp),0);
	MOVLW       62
	MOVWF       FARG_EEPROM_Write_int_Addr+0 
	MOVLW       0
	MOVWF       FARG_EEPROM_Write_int_Addr+1 
	CLRF        FARG_EEPROM_Write_int_Data+0 
	CLRF        FARG_EEPROM_Write_int_Data+1 
	CALL        _EEPROM_Write_int+0, 0
;EEPROM_Data.c,315 :: 		delay_ms(5);
	MOVLW       104
	MOVWF       R12, 0
	MOVLW       228
	MOVWF       R13, 0
L_FirstTime_EEPROM_Param58:
	DECFSZ      R13, 1, 1
	BRA         L_FirstTime_EEPROM_Param58
	DECFSZ      R12, 1, 1
	BRA         L_FirstTime_EEPROM_Param58
	NOP
;EEPROM_Data.c,316 :: 		EEPROM_Write((Loom_Starting_NO_addr),1);
	MOVLW       64
	MOVWF       FARG_Eeprom_Write_address+0 
	MOVLW       0
	MOVWF       FARG_Eeprom_Write_address+1 
	MOVLW       1
	MOVWF       FARG_Eeprom_Write_data_+0 
	CALL        _Eeprom_Write+0, 0
;EEPROM_Data.c,317 :: 		delay_ms(5);
	MOVLW       104
	MOVWF       R12, 0
	MOVLW       228
	MOVWF       R13, 0
L_FirstTime_EEPROM_Param59:
	DECFSZ      R13, 1, 1
	BRA         L_FirstTime_EEPROM_Param59
	DECFSZ      R12, 1, 1
	BRA         L_FirstTime_EEPROM_Param59
	NOP
;EEPROM_Data.c,320 :: 		EEPROM_Write ( (Meter_Or_Picks_Sel_addr),0); //DEFAULT 0
	MOVLW       65
	MOVWF       FARG_Eeprom_Write_address+0 
	MOVLW       0
	MOVWF       FARG_Eeprom_Write_address+1 
	CLRF        FARG_Eeprom_Write_data_+0 
	CALL        _Eeprom_Write+0, 0
;EEPROM_Data.c,321 :: 		delay_ms(5);
	MOVLW       104
	MOVWF       R12, 0
	MOVLW       228
	MOVWF       R13, 0
L_FirstTime_EEPROM_Param60:
	DECFSZ      R13, 1, 1
	BRA         L_FirstTime_EEPROM_Param60
	DECFSZ      R12, 1, 1
	BRA         L_FirstTime_EEPROM_Param60
	NOP
;EEPROM_Data.c,322 :: 		EEPROM_Write (  (Inch_Or_Pay_Sel_addr)  ,0); //DEFAULT 0
	MOVLW       66
	MOVWF       FARG_Eeprom_Write_address+0 
	MOVLW       0
	MOVWF       FARG_Eeprom_Write_address+1 
	CLRF        FARG_Eeprom_Write_data_+0 
	CALL        _Eeprom_Write+0, 0
;EEPROM_Data.c,323 :: 		delay_ms(5);
	MOVLW       104
	MOVWF       R12, 0
	MOVLW       228
	MOVWF       R13, 0
L_FirstTime_EEPROM_Param61:
	DECFSZ      R13, 1, 1
	BRA         L_FirstTime_EEPROM_Param61
	DECFSZ      R12, 1, 1
	BRA         L_FirstTime_EEPROM_Param61
	NOP
;EEPROM_Data.c,324 :: 		EEPORM_Write_Float( (Pay_Value_Store_addr)  ,0.0 );//RUPEES STORE PURPOSE
	MOVLW       67
	MOVWF       FARG_EEPORM_Write_Float_Addr+0 
	MOVLW       0
	MOVWF       FARG_EEPORM_Write_Float_Addr+1 
	CLRF        FARG_EEPORM_Write_Float_Value+0 
	CLRF        FARG_EEPORM_Write_Float_Value+1 
	CLRF        FARG_EEPORM_Write_Float_Value+2 
	CLRF        FARG_EEPORM_Write_Float_Value+3 
	CALL        _EEPORM_Write_Float+0, 0
;EEPROM_Data.c,325 :: 		delay_ms(5);
	MOVLW       104
	MOVWF       R12, 0
	MOVLW       228
	MOVWF       R13, 0
L_FirstTime_EEPROM_Param62:
	DECFSZ      R13, 1, 1
	BRA         L_FirstTime_EEPROM_Param62
	DECFSZ      R12, 1, 1
	BRA         L_FirstTime_EEPROM_Param62
	NOP
;EEPROM_Data.c,328 :: 		Loading_Fill(100);
	MOVLW       100
	MOVWF       FARG_Loading_Fill_percent+0 
	CALL        _Loading_Fill+0, 0
;EEPROM_Data.c,331 :: 		delay_ms(1000);
	MOVLW       82
	MOVWF       R11, 0
	MOVLW       43
	MOVWF       R12, 0
	MOVLW       0
	MOVWF       R13, 0
L_FirstTime_EEPROM_Param63:
	DECFSZ      R13, 1, 1
	BRA         L_FirstTime_EEPROM_Param63
	DECFSZ      R12, 1, 1
	BRA         L_FirstTime_EEPROM_Param63
	DECFSZ      R11, 1, 1
	BRA         L_FirstTime_EEPROM_Param63
	NOP
;EEPROM_Data.c,334 :: 		PEIE_bit  = 1;
	BSF         PEIE_bit+0, BitPos(PEIE_bit+0) 
;EEPROM_Data.c,335 :: 		GIE_bit   = 1;
	BSF         GIE_bit+0, BitPos(GIE_bit+0) 
;EEPROM_Data.c,338 :: 		asm CLRWDT;
	CLRWDT
;EEPROM_Data.c,339 :: 		T6963C_PanelFill(0);
	CLRF        FARG_T6963C_fill_v+0 
	CLRF        FARG_T6963C_fill_start+0 
	CLRF        FARG_T6963C_fill_start+1 
	MOVF        _T6963C_txtMemSize+0, 0 
	ADDWF       _T6963C_grMemSize+0, 0 
	MOVWF       FARG_T6963C_fill_len+0 
	MOVF        _T6963C_txtMemSize+1, 0 
	ADDWFC      _T6963C_grMemSize+1, 0 
	MOVWF       FARG_T6963C_fill_len+1 
	CALL        _T6963C_fill+0, 0
;EEPROM_Data.c,340 :: 		T6963C_Write_Text_Adv_ROM("LOADING COMPLETED",52,60);
	MOVLW       ?lstr_8_EEPROM_Data+0
	MOVWF       FARG_T6963C_Write_Text_Adv_ROM_text+0 
	MOVLW       hi_addr(?lstr_8_EEPROM_Data+0)
	MOVWF       FARG_T6963C_Write_Text_Adv_ROM_text+1 
	MOVLW       higher_addr(?lstr_8_EEPROM_Data+0)
	MOVWF       FARG_T6963C_Write_Text_Adv_ROM_text+2 
	MOVLW       52
	MOVWF       FARG_T6963C_Write_Text_Adv_ROM_x+0 
	MOVLW       60
	MOVWF       FARG_T6963C_Write_Text_Adv_ROM_y+0 
	CALL        _T6963C_Write_Text_Adv_ROM+0, 0
;EEPROM_Data.c,341 :: 		delay_ms(3000);
	MOVLW       244
	MOVWF       R11, 0
	MOVLW       130
	MOVWF       R12, 0
	MOVLW       5
	MOVWF       R13, 0
L_FirstTime_EEPROM_Param64:
	DECFSZ      R13, 1, 1
	BRA         L_FirstTime_EEPROM_Param64
	DECFSZ      R12, 1, 1
	BRA         L_FirstTime_EEPROM_Param64
	DECFSZ      R11, 1, 1
	BRA         L_FirstTime_EEPROM_Param64
;EEPROM_Data.c,342 :: 		Set_Date_Time_Rtc();
	CALL        _Set_Date_Time_Rtc+0, 0
;EEPROM_Data.c,343 :: 		asm CLRWDT;
	CLRWDT
;EEPROM_Data.c,344 :: 		Loom_Starting_No();
	CALL        _Loom_Starting_No+0, 0
;EEPROM_Data.c,368 :: 		}
L_end_FirstTime_EEPROM_Param:
	RETURN      0
; end of _FirstTime_EEPROM_Param

_ModeChange_EEPROM_update:

;EEPROM_Data.c,370 :: 		void ModeChange_EEPROM_update(void)
;EEPROM_Data.c,372 :: 		unsigned short temp=0;
;EEPROM_Data.c,373 :: 		unsigned int temp16=0;
;EEPROM_Data.c,374 :: 		T6963C_PanelFill(0);
	CLRF        FARG_T6963C_fill_v+0 
	CLRF        FARG_T6963C_fill_start+0 
	CLRF        FARG_T6963C_fill_start+1 
	MOVF        _T6963C_txtMemSize+0, 0 
	ADDWF       _T6963C_grMemSize+0, 0 
	MOVWF       FARG_T6963C_fill_len+0 
	MOVF        _T6963C_txtMemSize+1, 0 
	ADDWFC      _T6963C_grMemSize+1, 0 
	MOVWF       FARG_T6963C_fill_len+1 
	CALL        _T6963C_fill+0, 0
;EEPROM_Data.c,375 :: 		T6963C_Write_Text_Adv_ROM("NK",108,48);
	MOVLW       ?lstr_9_EEPROM_Data+0
	MOVWF       FARG_T6963C_Write_Text_Adv_ROM_text+0 
	MOVLW       hi_addr(?lstr_9_EEPROM_Data+0)
	MOVWF       FARG_T6963C_Write_Text_Adv_ROM_text+1 
	MOVLW       higher_addr(?lstr_9_EEPROM_Data+0)
	MOVWF       FARG_T6963C_Write_Text_Adv_ROM_text+2 
	MOVLW       108
	MOVWF       FARG_T6963C_Write_Text_Adv_ROM_x+0 
	MOVLW       48
	MOVWF       FARG_T6963C_Write_Text_Adv_ROM_y+0 
	CALL        _T6963C_Write_Text_Adv_ROM+0, 0
;EEPROM_Data.c,376 :: 		T6963C_Write_Text_Adv_ROM("AUTOMATION",80,64);
	MOVLW       ?lstr_10_EEPROM_Data+0
	MOVWF       FARG_T6963C_Write_Text_Adv_ROM_text+0 
	MOVLW       hi_addr(?lstr_10_EEPROM_Data+0)
	MOVWF       FARG_T6963C_Write_Text_Adv_ROM_text+1 
	MOVLW       higher_addr(?lstr_10_EEPROM_Data+0)
	MOVWF       FARG_T6963C_Write_Text_Adv_ROM_text+2 
	MOVLW       80
	MOVWF       FARG_T6963C_Write_Text_Adv_ROM_x+0 
	MOVLW       64
	MOVWF       FARG_T6963C_Write_Text_Adv_ROM_y+0 
	CALL        _T6963C_Write_Text_Adv_ROM+0, 0
;EEPROM_Data.c,377 :: 		delay_ms(1000);
	MOVLW       82
	MOVWF       R11, 0
	MOVLW       43
	MOVWF       R12, 0
	MOVLW       0
	MOVWF       R13, 0
L_ModeChange_EEPROM_update65:
	DECFSZ      R13, 1, 1
	BRA         L_ModeChange_EEPROM_update65
	DECFSZ      R12, 1, 1
	BRA         L_ModeChange_EEPROM_update65
	DECFSZ      R11, 1, 1
	BRA         L_ModeChange_EEPROM_update65
	NOP
;EEPROM_Data.c,378 :: 		T6963C_PanelFill(0);
	CLRF        FARG_T6963C_fill_v+0 
	CLRF        FARG_T6963C_fill_start+0 
	CLRF        FARG_T6963C_fill_start+1 
	MOVF        _T6963C_txtMemSize+0, 0 
	ADDWF       _T6963C_grMemSize+0, 0 
	MOVWF       FARG_T6963C_fill_len+0 
	MOVF        _T6963C_txtMemSize+1, 0 
	ADDWFC      _T6963C_grMemSize+1, 0 
	MOVWF       FARG_T6963C_fill_len+1 
	CALL        _T6963C_fill+0, 0
;EEPROM_Data.c,379 :: 		T6963C_Write_Text_Adv_ROM("Factory",88,48);
	MOVLW       ?lstr_11_EEPROM_Data+0
	MOVWF       FARG_T6963C_Write_Text_Adv_ROM_text+0 
	MOVLW       hi_addr(?lstr_11_EEPROM_Data+0)
	MOVWF       FARG_T6963C_Write_Text_Adv_ROM_text+1 
	MOVLW       higher_addr(?lstr_11_EEPROM_Data+0)
	MOVWF       FARG_T6963C_Write_Text_Adv_ROM_text+2 
	MOVLW       88
	MOVWF       FARG_T6963C_Write_Text_Adv_ROM_x+0 
	MOVLW       48
	MOVWF       FARG_T6963C_Write_Text_Adv_ROM_y+0 
	CALL        _T6963C_Write_Text_Adv_ROM+0, 0
;EEPROM_Data.c,380 :: 		T6963C_Write_Text_Adv_ROM("Setting",88,64);
	MOVLW       ?lstr_12_EEPROM_Data+0
	MOVWF       FARG_T6963C_Write_Text_Adv_ROM_text+0 
	MOVLW       hi_addr(?lstr_12_EEPROM_Data+0)
	MOVWF       FARG_T6963C_Write_Text_Adv_ROM_text+1 
	MOVLW       higher_addr(?lstr_12_EEPROM_Data+0)
	MOVWF       FARG_T6963C_Write_Text_Adv_ROM_text+2 
	MOVLW       88
	MOVWF       FARG_T6963C_Write_Text_Adv_ROM_x+0 
	MOVLW       64
	MOVWF       FARG_T6963C_Write_Text_Adv_ROM_y+0 
	CALL        _T6963C_Write_Text_Adv_ROM+0, 0
;EEPROM_Data.c,381 :: 		delay_ms(1000);
	MOVLW       82
	MOVWF       R11, 0
	MOVLW       43
	MOVWF       R12, 0
	MOVLW       0
	MOVWF       R13, 0
L_ModeChange_EEPROM_update66:
	DECFSZ      R13, 1, 1
	BRA         L_ModeChange_EEPROM_update66
	DECFSZ      R12, 1, 1
	BRA         L_ModeChange_EEPROM_update66
	DECFSZ      R11, 1, 1
	BRA         L_ModeChange_EEPROM_update66
	NOP
;EEPROM_Data.c,384 :: 		}
L_end_ModeChange_EEPROM_update:
	RETURN      0
; end of _ModeChange_EEPROM_update

_Update_EEPROM_PwrFail:

;EEPROM_Data.c,386 :: 		void Update_EEPROM_PwrFail(unsigned char Type)
;EEPROM_Data.c,390 :: 		GIE_bit       = 0;
	BCF         GIE_bit+0, BitPos(GIE_bit+0) 
;EEPROM_Data.c,391 :: 		PEIE_bit      = 0;
	BCF         PEIE_bit+0, BitPos(PEIE_bit+0) 
;EEPROM_Data.c,394 :: 		EEPROM_Write(Shift_addr,Shift_value);
	MOVLW       8
	MOVWF       FARG_Eeprom_Write_address+0 
	MOVLW       0
	MOVWF       FARG_Eeprom_Write_address+1 
	MOVF        _Shift_value+0, 0 
	MOVWF       FARG_Eeprom_Write_data_+0 
	CALL        _Eeprom_Write+0, 0
;EEPROM_Data.c,395 :: 		delay_ms(5);
	MOVLW       104
	MOVWF       R12, 0
	MOVLW       228
	MOVWF       R13, 0
L_Update_EEPROM_PwrFail67:
	DECFSZ      R13, 1, 1
	BRA         L_Update_EEPROM_PwrFail67
	DECFSZ      R12, 1, 1
	BRA         L_Update_EEPROM_PwrFail67
	NOP
;EEPROM_Data.c,397 :: 		Save_shiftwise();
	CALL        _Save_shiftwise+0, 0
;EEPROM_Data.c,399 :: 		EEPROM_Write(Pulse_PickA_addr,Pulse_PickA);
	MOVLW       160
	MOVWF       FARG_Eeprom_Write_address+0 
	MOVLW       3
	MOVWF       FARG_Eeprom_Write_address+1 
	MOVF        _Pulse_PickA+0, 0 
	MOVWF       FARG_Eeprom_Write_data_+0 
	CALL        _Eeprom_Write+0, 0
;EEPROM_Data.c,400 :: 		delay_ms(5);
	MOVLW       104
	MOVWF       R12, 0
	MOVLW       228
	MOVWF       R13, 0
L_Update_EEPROM_PwrFail68:
	DECFSZ      R13, 1, 1
	BRA         L_Update_EEPROM_PwrFail68
	DECFSZ      R12, 1, 1
	BRA         L_Update_EEPROM_PwrFail68
	NOP
;EEPROM_Data.c,401 :: 		EEPROM_Write(Pulse_PickB_addr,Pulse_PickB);
	MOVLW       161
	MOVWF       FARG_Eeprom_Write_address+0 
	MOVLW       3
	MOVWF       FARG_Eeprom_Write_address+1 
	MOVF        _Pulse_PickB+0, 0 
	MOVWF       FARG_Eeprom_Write_data_+0 
	CALL        _Eeprom_Write+0, 0
;EEPROM_Data.c,402 :: 		delay_ms(5);
	MOVLW       104
	MOVWF       R12, 0
	MOVLW       228
	MOVWF       R13, 0
L_Update_EEPROM_PwrFail69:
	DECFSZ      R13, 1, 1
	BRA         L_Update_EEPROM_PwrFail69
	DECFSZ      R12, 1, 1
	BRA         L_Update_EEPROM_PwrFail69
	NOP
;EEPROM_Data.c,403 :: 		EEPROM_Write(Pulse_PickC_addr,Pulse_PickC);
	MOVLW       162
	MOVWF       FARG_Eeprom_Write_address+0 
	MOVLW       3
	MOVWF       FARG_Eeprom_Write_address+1 
	MOVF        _Pulse_PickC+0, 0 
	MOVWF       FARG_Eeprom_Write_data_+0 
	CALL        _Eeprom_Write+0, 0
;EEPROM_Data.c,404 :: 		delay_ms(5);
	MOVLW       104
	MOVWF       R12, 0
	MOVLW       228
	MOVWF       R13, 0
L_Update_EEPROM_PwrFail70:
	DECFSZ      R13, 1, 1
	BRA         L_Update_EEPROM_PwrFail70
	DECFSZ      R12, 1, 1
	BRA         L_Update_EEPROM_PwrFail70
	NOP
;EEPROM_Data.c,405 :: 		EEPROM_Write(Pulse_PickD_addr,Pulse_PickD);
	MOVLW       163
	MOVWF       FARG_Eeprom_Write_address+0 
	MOVLW       3
	MOVWF       FARG_Eeprom_Write_address+1 
	MOVF        _Pulse_PickD+0, 0 
	MOVWF       FARG_Eeprom_Write_data_+0 
	CALL        _Eeprom_Write+0, 0
;EEPROM_Data.c,406 :: 		delay_ms(5);
	MOVLW       104
	MOVWF       R12, 0
	MOVLW       228
	MOVWF       R13, 0
L_Update_EEPROM_PwrFail71:
	DECFSZ      R13, 1, 1
	BRA         L_Update_EEPROM_PwrFail71
	DECFSZ      R12, 1, 1
	BRA         L_Update_EEPROM_PwrFail71
	NOP
;EEPROM_Data.c,407 :: 		EEPROM_Write(Pulse_PickE_addr,Pulse_PickE);
	MOVLW       164
	MOVWF       FARG_Eeprom_Write_address+0 
	MOVLW       3
	MOVWF       FARG_Eeprom_Write_address+1 
	MOVF        _Pulse_PickE+0, 0 
	MOVWF       FARG_Eeprom_Write_data_+0 
	CALL        _Eeprom_Write+0, 0
;EEPROM_Data.c,408 :: 		delay_ms(5);
	MOVLW       104
	MOVWF       R12, 0
	MOVLW       228
	MOVWF       R13, 0
L_Update_EEPROM_PwrFail72:
	DECFSZ      R13, 1, 1
	BRA         L_Update_EEPROM_PwrFail72
	DECFSZ      R12, 1, 1
	BRA         L_Update_EEPROM_PwrFail72
	NOP
;EEPROM_Data.c,409 :: 		EEPROM_Write(Pulse_PickF_addr,Pulse_PickF);
	MOVLW       165
	MOVWF       FARG_Eeprom_Write_address+0 
	MOVLW       3
	MOVWF       FARG_Eeprom_Write_address+1 
	MOVF        _Pulse_PickF+0, 0 
	MOVWF       FARG_Eeprom_Write_data_+0 
	CALL        _Eeprom_Write+0, 0
;EEPROM_Data.c,410 :: 		delay_ms(5);
	MOVLW       104
	MOVWF       R12, 0
	MOVLW       228
	MOVWF       R13, 0
L_Update_EEPROM_PwrFail73:
	DECFSZ      R13, 1, 1
	BRA         L_Update_EEPROM_PwrFail73
	DECFSZ      R12, 1, 1
	BRA         L_Update_EEPROM_PwrFail73
	NOP
;EEPROM_Data.c,411 :: 		EEPROM_Write(Pulse_PickG_addr,Pulse_PickG);
	MOVLW       166
	MOVWF       FARG_Eeprom_Write_address+0 
	MOVLW       3
	MOVWF       FARG_Eeprom_Write_address+1 
	MOVF        _Pulse_PickG+0, 0 
	MOVWF       FARG_Eeprom_Write_data_+0 
	CALL        _Eeprom_Write+0, 0
;EEPROM_Data.c,412 :: 		delay_ms(5);
	MOVLW       104
	MOVWF       R12, 0
	MOVLW       228
	MOVWF       R13, 0
L_Update_EEPROM_PwrFail74:
	DECFSZ      R13, 1, 1
	BRA         L_Update_EEPROM_PwrFail74
	DECFSZ      R12, 1, 1
	BRA         L_Update_EEPROM_PwrFail74
	NOP
;EEPROM_Data.c,413 :: 		EEPROM_Write(Pulse_PickH_addr,Pulse_PickH);
	MOVLW       167
	MOVWF       FARG_Eeprom_Write_address+0 
	MOVLW       3
	MOVWF       FARG_Eeprom_Write_address+1 
	MOVF        _Pulse_PickH+0, 0 
	MOVWF       FARG_Eeprom_Write_data_+0 
	CALL        _Eeprom_Write+0, 0
;EEPROM_Data.c,414 :: 		delay_ms(100);
	MOVLW       9
	MOVWF       R11, 0
	MOVLW       30
	MOVWF       R12, 0
	MOVLW       228
	MOVWF       R13, 0
L_Update_EEPROM_PwrFail75:
	DECFSZ      R13, 1, 1
	BRA         L_Update_EEPROM_PwrFail75
	DECFSZ      R12, 1, 1
	BRA         L_Update_EEPROM_PwrFail75
	DECFSZ      R11, 1, 1
	BRA         L_Update_EEPROM_PwrFail75
	NOP
;EEPROM_Data.c,417 :: 		EEPROM_Write(Pulse_PickI_addr,Pulse_PickI);
	MOVLW       168
	MOVWF       FARG_Eeprom_Write_address+0 
	MOVLW       3
	MOVWF       FARG_Eeprom_Write_address+1 
	MOVF        _Pulse_PickI+0, 0 
	MOVWF       FARG_Eeprom_Write_data_+0 
	CALL        _Eeprom_Write+0, 0
;EEPROM_Data.c,418 :: 		delay_ms(5);
	MOVLW       104
	MOVWF       R12, 0
	MOVLW       228
	MOVWF       R13, 0
L_Update_EEPROM_PwrFail76:
	DECFSZ      R13, 1, 1
	BRA         L_Update_EEPROM_PwrFail76
	DECFSZ      R12, 1, 1
	BRA         L_Update_EEPROM_PwrFail76
	NOP
;EEPROM_Data.c,419 :: 		EEPROM_Write(Pulse_PickJ_addr,Pulse_PickJ);
	MOVLW       169
	MOVWF       FARG_Eeprom_Write_address+0 
	MOVLW       3
	MOVWF       FARG_Eeprom_Write_address+1 
	MOVF        _Pulse_PickJ+0, 0 
	MOVWF       FARG_Eeprom_Write_data_+0 
	CALL        _Eeprom_Write+0, 0
;EEPROM_Data.c,420 :: 		delay_ms(5);
	MOVLW       104
	MOVWF       R12, 0
	MOVLW       228
	MOVWF       R13, 0
L_Update_EEPROM_PwrFail77:
	DECFSZ      R13, 1, 1
	BRA         L_Update_EEPROM_PwrFail77
	DECFSZ      R12, 1, 1
	BRA         L_Update_EEPROM_PwrFail77
	NOP
;EEPROM_Data.c,421 :: 		EEPROM_Write(Pulse_PickK_addr,Pulse_PickK);
	MOVLW       170
	MOVWF       FARG_Eeprom_Write_address+0 
	MOVLW       3
	MOVWF       FARG_Eeprom_Write_address+1 
	MOVF        _Pulse_PickK+0, 0 
	MOVWF       FARG_Eeprom_Write_data_+0 
	CALL        _Eeprom_Write+0, 0
;EEPROM_Data.c,422 :: 		delay_ms(5);
	MOVLW       104
	MOVWF       R12, 0
	MOVLW       228
	MOVWF       R13, 0
L_Update_EEPROM_PwrFail78:
	DECFSZ      R13, 1, 1
	BRA         L_Update_EEPROM_PwrFail78
	DECFSZ      R12, 1, 1
	BRA         L_Update_EEPROM_PwrFail78
	NOP
;EEPROM_Data.c,423 :: 		EEPROM_Write(Pulse_PickL_addr,Pulse_PickL);
	MOVLW       171
	MOVWF       FARG_Eeprom_Write_address+0 
	MOVLW       3
	MOVWF       FARG_Eeprom_Write_address+1 
	MOVF        _Pulse_PickL+0, 0 
	MOVWF       FARG_Eeprom_Write_data_+0 
	CALL        _Eeprom_Write+0, 0
;EEPROM_Data.c,424 :: 		delay_ms(5);
	MOVLW       104
	MOVWF       R12, 0
	MOVLW       228
	MOVWF       R13, 0
L_Update_EEPROM_PwrFail79:
	DECFSZ      R13, 1, 1
	BRA         L_Update_EEPROM_PwrFail79
	DECFSZ      R12, 1, 1
	BRA         L_Update_EEPROM_PwrFail79
	NOP
;EEPROM_Data.c,425 :: 		EEPROM_Write(Pulse_PickM_addr,Pulse_PickM);
	MOVLW       172
	MOVWF       FARG_Eeprom_Write_address+0 
	MOVLW       3
	MOVWF       FARG_Eeprom_Write_address+1 
	MOVF        _Pulse_PickM+0, 0 
	MOVWF       FARG_Eeprom_Write_data_+0 
	CALL        _Eeprom_Write+0, 0
;EEPROM_Data.c,426 :: 		delay_ms(5);
	MOVLW       104
	MOVWF       R12, 0
	MOVLW       228
	MOVWF       R13, 0
L_Update_EEPROM_PwrFail80:
	DECFSZ      R13, 1, 1
	BRA         L_Update_EEPROM_PwrFail80
	DECFSZ      R12, 1, 1
	BRA         L_Update_EEPROM_PwrFail80
	NOP
;EEPROM_Data.c,427 :: 		EEPROM_Write(Pulse_PickN_addr,Pulse_PickN);
	MOVLW       173
	MOVWF       FARG_Eeprom_Write_address+0 
	MOVLW       3
	MOVWF       FARG_Eeprom_Write_address+1 
	MOVF        _Pulse_PickN+0, 0 
	MOVWF       FARG_Eeprom_Write_data_+0 
	CALL        _Eeprom_Write+0, 0
;EEPROM_Data.c,428 :: 		delay_ms(5);
	MOVLW       104
	MOVWF       R12, 0
	MOVLW       228
	MOVWF       R13, 0
L_Update_EEPROM_PwrFail81:
	DECFSZ      R13, 1, 1
	BRA         L_Update_EEPROM_PwrFail81
	DECFSZ      R12, 1, 1
	BRA         L_Update_EEPROM_PwrFail81
	NOP
;EEPROM_Data.c,429 :: 		EEPROM_Write(Pulse_PickO_addr,Pulse_PickO);
	MOVLW       174
	MOVWF       FARG_Eeprom_Write_address+0 
	MOVLW       3
	MOVWF       FARG_Eeprom_Write_address+1 
	MOVF        _Pulse_PickO+0, 0 
	MOVWF       FARG_Eeprom_Write_data_+0 
	CALL        _Eeprom_Write+0, 0
;EEPROM_Data.c,430 :: 		delay_ms(5);
	MOVLW       104
	MOVWF       R12, 0
	MOVLW       228
	MOVWF       R13, 0
L_Update_EEPROM_PwrFail82:
	DECFSZ      R13, 1, 1
	BRA         L_Update_EEPROM_PwrFail82
	DECFSZ      R12, 1, 1
	BRA         L_Update_EEPROM_PwrFail82
	NOP
;EEPROM_Data.c,431 :: 		EEPROM_Write(Pulse_PickP_addr,Pulse_PickP);
	MOVLW       175
	MOVWF       FARG_Eeprom_Write_address+0 
	MOVLW       3
	MOVWF       FARG_Eeprom_Write_address+1 
	MOVF        _Pulse_PickP+0, 0 
	MOVWF       FARG_Eeprom_Write_data_+0 
	CALL        _Eeprom_Write+0, 0
;EEPROM_Data.c,432 :: 		delay_ms(5);
	MOVLW       104
	MOVWF       R12, 0
	MOVLW       228
	MOVWF       R13, 0
L_Update_EEPROM_PwrFail83:
	DECFSZ      R13, 1, 1
	BRA         L_Update_EEPROM_PwrFail83
	DECFSZ      R12, 1, 1
	BRA         L_Update_EEPROM_PwrFail83
	NOP
;EEPROM_Data.c,435 :: 		if(Type==0)
	MOVF        FARG_Update_EEPROM_PwrFail_Type+0, 0 
	XORLW       0
	BTFSS       STATUS+0, 2 
	GOTO        L_Update_EEPROM_PwrFail84
;EEPROM_Data.c,437 :: 		T6963C_PanelFill(0);
	CLRF        FARG_T6963C_fill_v+0 
	CLRF        FARG_T6963C_fill_start+0 
	CLRF        FARG_T6963C_fill_start+1 
	MOVF        _T6963C_txtMemSize+0, 0 
	ADDWF       _T6963C_grMemSize+0, 0 
	MOVWF       FARG_T6963C_fill_len+0 
	MOVF        _T6963C_txtMemSize+1, 0 
	ADDWFC      _T6963C_grMemSize+1, 0 
	MOVWF       FARG_T6963C_fill_len+1 
	CALL        _T6963C_fill+0, 0
;EEPROM_Data.c,438 :: 		T6963C_Write_Text_Adv_ROM("THANKING YOU",72,60);
	MOVLW       ?lstr_13_EEPROM_Data+0
	MOVWF       FARG_T6963C_Write_Text_Adv_ROM_text+0 
	MOVLW       hi_addr(?lstr_13_EEPROM_Data+0)
	MOVWF       FARG_T6963C_Write_Text_Adv_ROM_text+1 
	MOVLW       higher_addr(?lstr_13_EEPROM_Data+0)
	MOVWF       FARG_T6963C_Write_Text_Adv_ROM_text+2 
	MOVLW       72
	MOVWF       FARG_T6963C_Write_Text_Adv_ROM_x+0 
	MOVLW       60
	MOVWF       FARG_T6963C_Write_Text_Adv_ROM_y+0 
	CALL        _T6963C_Write_Text_Adv_ROM+0, 0
;EEPROM_Data.c,439 :: 		delay_ms(5000);
	MOVLW       2
	MOVWF       R10, 0
	MOVLW       150
	MOVWF       R11, 0
	MOVLW       216
	MOVWF       R12, 0
	MOVLW       8
	MOVWF       R13, 0
L_Update_EEPROM_PwrFail85:
	DECFSZ      R13, 1, 1
	BRA         L_Update_EEPROM_PwrFail85
	DECFSZ      R12, 1, 1
	BRA         L_Update_EEPROM_PwrFail85
	DECFSZ      R11, 1, 1
	BRA         L_Update_EEPROM_PwrFail85
	DECFSZ      R10, 1, 1
	BRA         L_Update_EEPROM_PwrFail85
	NOP
;EEPROM_Data.c,442 :: 		SWDTEN_bit = 1;//WDT SET
	BSF         SWDTEN_bit+0, BitPos(SWDTEN_bit+0) 
;EEPROM_Data.c,445 :: 		RI_bit=0;
	BCF         RI_bit+0, BitPos(RI_bit+0) 
;EEPROM_Data.c,446 :: 		T6963C_PanelFill(0);
	CLRF        FARG_T6963C_fill_v+0 
	CLRF        FARG_T6963C_fill_start+0 
	CLRF        FARG_T6963C_fill_start+1 
	MOVF        _T6963C_txtMemSize+0, 0 
	ADDWF       _T6963C_grMemSize+0, 0 
	MOVWF       FARG_T6963C_fill_len+0 
	MOVF        _T6963C_txtMemSize+1, 0 
	ADDWFC      _T6963C_grMemSize+1, 0 
	MOVWF       FARG_T6963C_fill_len+1 
	CALL        _T6963C_fill+0, 0
;EEPROM_Data.c,447 :: 		while(1) // TO APPLY WDT LOOP ADDED
L_Update_EEPROM_PwrFail86:
;EEPROM_Data.c,451 :: 		T6963C_Write_Text_Adv_ROM("PLEASE OFF MCB",64,60);
	MOVLW       ?lstr_14_EEPROM_Data+0
	MOVWF       FARG_T6963C_Write_Text_Adv_ROM_text+0 
	MOVLW       hi_addr(?lstr_14_EEPROM_Data+0)
	MOVWF       FARG_T6963C_Write_Text_Adv_ROM_text+1 
	MOVLW       higher_addr(?lstr_14_EEPROM_Data+0)
	MOVWF       FARG_T6963C_Write_Text_Adv_ROM_text+2 
	MOVLW       64
	MOVWF       FARG_T6963C_Write_Text_Adv_ROM_x+0 
	MOVLW       60
	MOVWF       FARG_T6963C_Write_Text_Adv_ROM_y+0 
	CALL        _T6963C_Write_Text_Adv_ROM+0, 0
;EEPROM_Data.c,453 :: 		}
	GOTO        L_Update_EEPROM_PwrFail86
;EEPROM_Data.c,455 :: 		}
L_Update_EEPROM_PwrFail84:
;EEPROM_Data.c,456 :: 		else if(Type==1)
	MOVF        FARG_Update_EEPROM_PwrFail_Type+0, 0 
	XORLW       1
	BTFSS       STATUS+0, 2 
	GOTO        L_Update_EEPROM_PwrFail89
;EEPROM_Data.c,458 :: 		GIE_bit       = 1;
	BSF         GIE_bit+0, BitPos(GIE_bit+0) 
;EEPROM_Data.c,459 :: 		PEIE_bit      = 1;
	BSF         PEIE_bit+0, BitPos(PEIE_bit+0) 
;EEPROM_Data.c,460 :: 		return;
	GOTO        L_end_Update_EEPROM_PwrFail
;EEPROM_Data.c,461 :: 		}
L_Update_EEPROM_PwrFail89:
;EEPROM_Data.c,462 :: 		}
L_end_Update_EEPROM_PwrFail:
	RETURN      0
; end of _Update_EEPROM_PwrFail

_load_data:

;EEPROM_Data.c,464 :: 		void load_data(void)
;EEPROM_Data.c,466 :: 		T6963C_PanelFill(0);
	CLRF        FARG_T6963C_fill_v+0 
	CLRF        FARG_T6963C_fill_start+0 
	CLRF        FARG_T6963C_fill_start+1 
	MOVF        _T6963C_txtMemSize+0, 0 
	ADDWF       _T6963C_grMemSize+0, 0 
	MOVWF       FARG_T6963C_fill_len+0 
	MOVF        _T6963C_txtMemSize+1, 0 
	ADDWFC      _T6963C_grMemSize+1, 0 
	MOVWF       FARG_T6963C_fill_len+1 
	CALL        _T6963C_fill+0, 0
;EEPROM_Data.c,469 :: 		T6963C_rectangle(80,104, 160, 90 , T6963C_WHITE); //FOR ANMIATION OUTER BOX
	MOVLW       80
	MOVWF       FARG_T6963C_rectangle_x0+0 
	MOVLW       0
	MOVWF       FARG_T6963C_rectangle_x0+1 
	MOVLW       104
	MOVWF       FARG_T6963C_rectangle_y0+0 
	MOVLW       0
	MOVWF       FARG_T6963C_rectangle_y0+1 
	MOVLW       160
	MOVWF       FARG_T6963C_rectangle_x1+0 
	MOVLW       0
	MOVWF       FARG_T6963C_rectangle_x1+1 
	MOVLW       90
	MOVWF       FARG_T6963C_rectangle_y1+0 
	MOVLW       0
	MOVWF       FARG_T6963C_rectangle_y1+1 
	MOVLW       8
	MOVWF       FARG_T6963C_rectangle_pcolor+0 
	CALL        _T6963C_rectangle+0, 0
;EEPROM_Data.c,470 :: 		T6963C_Write_Text_Adv_ROM("UPDATING ALL",80,40);
	MOVLW       ?lstr_15_EEPROM_Data+0
	MOVWF       FARG_T6963C_Write_Text_Adv_ROM_text+0 
	MOVLW       hi_addr(?lstr_15_EEPROM_Data+0)
	MOVWF       FARG_T6963C_Write_Text_Adv_ROM_text+1 
	MOVLW       higher_addr(?lstr_15_EEPROM_Data+0)
	MOVWF       FARG_T6963C_Write_Text_Adv_ROM_text+2 
	MOVLW       80
	MOVWF       FARG_T6963C_Write_Text_Adv_ROM_x+0 
	MOVLW       40
	MOVWF       FARG_T6963C_Write_Text_Adv_ROM_y+0 
	CALL        _T6963C_Write_Text_Adv_ROM+0, 0
;EEPROM_Data.c,471 :: 		T6963C_Write_Text_Adv_ROM("LOOM  DATAS",80,56);
	MOVLW       ?lstr_16_EEPROM_Data+0
	MOVWF       FARG_T6963C_Write_Text_Adv_ROM_text+0 
	MOVLW       hi_addr(?lstr_16_EEPROM_Data+0)
	MOVWF       FARG_T6963C_Write_Text_Adv_ROM_text+1 
	MOVLW       higher_addr(?lstr_16_EEPROM_Data+0)
	MOVWF       FARG_T6963C_Write_Text_Adv_ROM_text+2 
	MOVLW       80
	MOVWF       FARG_T6963C_Write_Text_Adv_ROM_x+0 
	MOVLW       56
	MOVWF       FARG_T6963C_Write_Text_Adv_ROM_y+0 
	CALL        _T6963C_Write_Text_Adv_ROM+0, 0
;EEPROM_Data.c,473 :: 		Loading_Fill(2);
	MOVLW       2
	MOVWF       FARG_Loading_Fill_percent+0 
	CALL        _Loading_Fill+0, 0
;EEPROM_Data.c,474 :: 		Shift_value=EEPROM_Read(Shift_addr);
	MOVLW       8
	MOVWF       FARG_Eeprom_Read_address+0 
	MOVLW       0
	MOVWF       FARG_Eeprom_Read_address+1 
	CALL        _Eeprom_Read+0, 0
	MOVF        R0, 0 
	MOVWF       _Shift_value+0 
;EEPROM_Data.c,475 :: 		delay_ms(5);
	MOVLW       104
	MOVWF       R12, 0
	MOVLW       228
	MOVWF       R13, 0
L_load_data90:
	DECFSZ      R13, 1, 1
	BRA         L_load_data90
	DECFSZ      R12, 1, 1
	BRA         L_load_data90
	NOP
;EEPROM_Data.c,477 :: 		Loading_Fill(4);
	MOVLW       4
	MOVWF       FARG_Loading_Fill_percent+0 
	CALL        _Loading_Fill+0, 0
;EEPROM_Data.c,478 :: 		MODE = EEPROM_Read(Mode_addr);
	MOVLW       9
	MOVWF       FARG_Eeprom_Read_address+0 
	MOVLW       0
	MOVWF       FARG_Eeprom_Read_address+1 
	CALL        _Eeprom_Read+0, 0
	MOVF        R0, 0 
	MOVWF       MODE+0 
;EEPROM_Data.c,479 :: 		delay_ms(5);
	MOVLW       104
	MOVWF       R12, 0
	MOVLW       228
	MOVWF       R13, 0
L_load_data91:
	DECFSZ      R13, 1, 1
	BRA         L_load_data91
	DECFSZ      R12, 1, 1
	BRA         L_load_data91
	NOP
;EEPROM_Data.c,481 :: 		Loading_Fill(6);
	MOVLW       6
	MOVWF       FARG_Loading_Fill_percent+0 
	CALL        _Loading_Fill+0, 0
;EEPROM_Data.c,482 :: 		Picks4inchA = EEPROM_Read(Picks4inchA_addr);
	MOVLW       16
	MOVWF       FARG_Eeprom_Read_address+0 
	MOVLW       0
	MOVWF       FARG_Eeprom_Read_address+1 
	CALL        _Eeprom_Read+0, 0
	MOVF        R0, 0 
	MOVWF       _Picks4inchA+0 
	MOVLW       0
	MOVWF       _Picks4inchA+1 
;EEPROM_Data.c,483 :: 		delay_ms(5);
	MOVLW       104
	MOVWF       R12, 0
	MOVLW       228
	MOVWF       R13, 0
L_load_data92:
	DECFSZ      R13, 1, 1
	BRA         L_load_data92
	DECFSZ      R12, 1, 1
	BRA         L_load_data92
	NOP
;EEPROM_Data.c,485 :: 		Loading_Fill(8);
	MOVLW       8
	MOVWF       FARG_Loading_Fill_percent+0 
	CALL        _Loading_Fill+0, 0
;EEPROM_Data.c,486 :: 		inchA     = EEPROM_Read_int((InchA_addr_Temp));         //1
	MOVLW       32
	MOVWF       FARG_EEPROM_Read_int_Addr+0 
	MOVLW       0
	MOVWF       FARG_EEPROM_Read_int_Addr+1 
	CALL        _EEPROM_Read_int+0, 0
	CALL        _word2double+0, 0
	MOVF        R0, 0 
	MOVWF       _inchA+0 
	MOVF        R1, 0 
	MOVWF       _inchA+1 
	MOVF        R2, 0 
	MOVWF       _inchA+2 
	MOVF        R3, 0 
	MOVWF       _inchA+3 
;EEPROM_Data.c,487 :: 		delay_ms(5);
	MOVLW       104
	MOVWF       R12, 0
	MOVLW       228
	MOVWF       R13, 0
L_load_data93:
	DECFSZ      R13, 1, 1
	BRA         L_load_data93
	DECFSZ      R12, 1, 1
	BRA         L_load_data93
	NOP
;EEPROM_Data.c,489 :: 		Loading_Fill(10);
	MOVLW       10
	MOVWF       FARG_Loading_Fill_percent+0 
	CALL        _Loading_Fill+0, 0
;EEPROM_Data.c,490 :: 		Pulse_PickA = EEPROM_Read(Pulse_PickA_addr);
	MOVLW       160
	MOVWF       FARG_Eeprom_Read_address+0 
	MOVLW       3
	MOVWF       FARG_Eeprom_Read_address+1 
	CALL        _Eeprom_Read+0, 0
	MOVF        R0, 0 
	MOVWF       _Pulse_PickA+0 
	MOVLW       0
	MOVWF       _Pulse_PickA+1 
;EEPROM_Data.c,491 :: 		delay_ms(5);
	MOVLW       104
	MOVWF       R12, 0
	MOVLW       228
	MOVWF       R13, 0
L_load_data94:
	DECFSZ      R13, 1, 1
	BRA         L_load_data94
	DECFSZ      R12, 1, 1
	BRA         L_load_data94
	NOP
;EEPROM_Data.c,492 :: 		Loading_Fill(12);
	MOVLW       12
	MOVWF       FARG_Loading_Fill_percent+0 
	CALL        _Loading_Fill+0, 0
;EEPROM_Data.c,493 :: 		Picks4inchB = EEPROM_Read(Picks4inchB_addr);
	MOVLW       17
	MOVWF       FARG_Eeprom_Read_address+0 
	MOVLW       0
	MOVWF       FARG_Eeprom_Read_address+1 
	CALL        _Eeprom_Read+0, 0
	MOVF        R0, 0 
	MOVWF       _Picks4inchB+0 
	MOVLW       0
	MOVWF       _Picks4inchB+1 
;EEPROM_Data.c,494 :: 		delay_ms(5);
	MOVLW       104
	MOVWF       R12, 0
	MOVLW       228
	MOVWF       R13, 0
L_load_data95:
	DECFSZ      R13, 1, 1
	BRA         L_load_data95
	DECFSZ      R12, 1, 1
	BRA         L_load_data95
	NOP
;EEPROM_Data.c,496 :: 		Loading_Fill(14);
	MOVLW       14
	MOVWF       FARG_Loading_Fill_percent+0 
	CALL        _Loading_Fill+0, 0
;EEPROM_Data.c,497 :: 		inchB     = EEPROM_Read_int((InchB_addr_Temp));        //2
	MOVLW       34
	MOVWF       FARG_EEPROM_Read_int_Addr+0 
	MOVLW       0
	MOVWF       FARG_EEPROM_Read_int_Addr+1 
	CALL        _EEPROM_Read_int+0, 0
	CALL        _word2double+0, 0
	MOVF        R0, 0 
	MOVWF       _inchB+0 
	MOVF        R1, 0 
	MOVWF       _inchB+1 
	MOVF        R2, 0 
	MOVWF       _inchB+2 
	MOVF        R3, 0 
	MOVWF       _inchB+3 
;EEPROM_Data.c,498 :: 		delay_ms(5);
	MOVLW       104
	MOVWF       R12, 0
	MOVLW       228
	MOVWF       R13, 0
L_load_data96:
	DECFSZ      R13, 1, 1
	BRA         L_load_data96
	DECFSZ      R12, 1, 1
	BRA         L_load_data96
	NOP
;EEPROM_Data.c,500 :: 		Loading_Fill(16);
	MOVLW       16
	MOVWF       FARG_Loading_Fill_percent+0 
	CALL        _Loading_Fill+0, 0
;EEPROM_Data.c,501 :: 		Pulse_PickB = EEPROM_Read(Pulse_PickB_addr);
	MOVLW       161
	MOVWF       FARG_Eeprom_Read_address+0 
	MOVLW       3
	MOVWF       FARG_Eeprom_Read_address+1 
	CALL        _Eeprom_Read+0, 0
	MOVF        R0, 0 
	MOVWF       _Pulse_PickB+0 
	MOVLW       0
	MOVWF       _Pulse_PickB+1 
;EEPROM_Data.c,502 :: 		delay_ms(5);
	MOVLW       104
	MOVWF       R12, 0
	MOVLW       228
	MOVWF       R13, 0
L_load_data97:
	DECFSZ      R13, 1, 1
	BRA         L_load_data97
	DECFSZ      R12, 1, 1
	BRA         L_load_data97
	NOP
;EEPROM_Data.c,504 :: 		Loading_Fill(18);
	MOVLW       18
	MOVWF       FARG_Loading_Fill_percent+0 
	CALL        _Loading_Fill+0, 0
;EEPROM_Data.c,505 :: 		Picks4inchC = EEPROM_Read(Picks4inchC_addr);
	MOVLW       18
	MOVWF       FARG_Eeprom_Read_address+0 
	MOVLW       0
	MOVWF       FARG_Eeprom_Read_address+1 
	CALL        _Eeprom_Read+0, 0
	MOVF        R0, 0 
	MOVWF       _Picks4inchC+0 
	MOVLW       0
	MOVWF       _Picks4inchC+1 
;EEPROM_Data.c,506 :: 		delay_ms(5);
	MOVLW       104
	MOVWF       R12, 0
	MOVLW       228
	MOVWF       R13, 0
L_load_data98:
	DECFSZ      R13, 1, 1
	BRA         L_load_data98
	DECFSZ      R12, 1, 1
	BRA         L_load_data98
	NOP
;EEPROM_Data.c,508 :: 		Loading_Fill(20);
	MOVLW       20
	MOVWF       FARG_Loading_Fill_percent+0 
	CALL        _Loading_Fill+0, 0
;EEPROM_Data.c,509 :: 		inchC     = EEPROM_Read_int((InchC_addr_Temp));        //3
	MOVLW       36
	MOVWF       FARG_EEPROM_Read_int_Addr+0 
	MOVLW       0
	MOVWF       FARG_EEPROM_Read_int_Addr+1 
	CALL        _EEPROM_Read_int+0, 0
	CALL        _word2double+0, 0
	MOVF        R0, 0 
	MOVWF       _inchC+0 
	MOVF        R1, 0 
	MOVWF       _inchC+1 
	MOVF        R2, 0 
	MOVWF       _inchC+2 
	MOVF        R3, 0 
	MOVWF       _inchC+3 
;EEPROM_Data.c,510 :: 		delay_ms(5);
	MOVLW       104
	MOVWF       R12, 0
	MOVLW       228
	MOVWF       R13, 0
L_load_data99:
	DECFSZ      R13, 1, 1
	BRA         L_load_data99
	DECFSZ      R12, 1, 1
	BRA         L_load_data99
	NOP
;EEPROM_Data.c,512 :: 		Loading_Fill(22);
	MOVLW       22
	MOVWF       FARG_Loading_Fill_percent+0 
	CALL        _Loading_Fill+0, 0
;EEPROM_Data.c,513 :: 		Pulse_PickC = EEPROM_Read(Pulse_PickC_addr);
	MOVLW       162
	MOVWF       FARG_Eeprom_Read_address+0 
	MOVLW       3
	MOVWF       FARG_Eeprom_Read_address+1 
	CALL        _Eeprom_Read+0, 0
	MOVF        R0, 0 
	MOVWF       _Pulse_PickC+0 
	MOVLW       0
	MOVWF       _Pulse_PickC+1 
;EEPROM_Data.c,514 :: 		delay_ms(5);
	MOVLW       104
	MOVWF       R12, 0
	MOVLW       228
	MOVWF       R13, 0
L_load_data100:
	DECFSZ      R13, 1, 1
	BRA         L_load_data100
	DECFSZ      R12, 1, 1
	BRA         L_load_data100
	NOP
;EEPROM_Data.c,516 :: 		Loading_Fill(24);
	MOVLW       24
	MOVWF       FARG_Loading_Fill_percent+0 
	CALL        _Loading_Fill+0, 0
;EEPROM_Data.c,517 :: 		Picks4inchD = EEPROM_Read(Picks4inchD_addr);
	MOVLW       19
	MOVWF       FARG_Eeprom_Read_address+0 
	MOVLW       0
	MOVWF       FARG_Eeprom_Read_address+1 
	CALL        _Eeprom_Read+0, 0
	MOVF        R0, 0 
	MOVWF       _Picks4inchD+0 
	MOVLW       0
	MOVWF       _Picks4inchD+1 
;EEPROM_Data.c,518 :: 		delay_ms(5);
	MOVLW       104
	MOVWF       R12, 0
	MOVLW       228
	MOVWF       R13, 0
L_load_data101:
	DECFSZ      R13, 1, 1
	BRA         L_load_data101
	DECFSZ      R12, 1, 1
	BRA         L_load_data101
	NOP
;EEPROM_Data.c,520 :: 		Loading_Fill(26);
	MOVLW       26
	MOVWF       FARG_Loading_Fill_percent+0 
	CALL        _Loading_Fill+0, 0
;EEPROM_Data.c,521 :: 		inchD     = EEPROM_Read_int((InchD_addr_Temp));         //4
	MOVLW       38
	MOVWF       FARG_EEPROM_Read_int_Addr+0 
	MOVLW       0
	MOVWF       FARG_EEPROM_Read_int_Addr+1 
	CALL        _EEPROM_Read_int+0, 0
	CALL        _word2double+0, 0
	MOVF        R0, 0 
	MOVWF       _inchD+0 
	MOVF        R1, 0 
	MOVWF       _inchD+1 
	MOVF        R2, 0 
	MOVWF       _inchD+2 
	MOVF        R3, 0 
	MOVWF       _inchD+3 
;EEPROM_Data.c,522 :: 		delay_ms(5);
	MOVLW       104
	MOVWF       R12, 0
	MOVLW       228
	MOVWF       R13, 0
L_load_data102:
	DECFSZ      R13, 1, 1
	BRA         L_load_data102
	DECFSZ      R12, 1, 1
	BRA         L_load_data102
	NOP
;EEPROM_Data.c,524 :: 		Loading_Fill(28);
	MOVLW       28
	MOVWF       FARG_Loading_Fill_percent+0 
	CALL        _Loading_Fill+0, 0
;EEPROM_Data.c,525 :: 		Pulse_PickD = EEPROM_Read(Pulse_PickD_addr);
	MOVLW       163
	MOVWF       FARG_Eeprom_Read_address+0 
	MOVLW       3
	MOVWF       FARG_Eeprom_Read_address+1 
	CALL        _Eeprom_Read+0, 0
	MOVF        R0, 0 
	MOVWF       _Pulse_PickD+0 
	MOVLW       0
	MOVWF       _Pulse_PickD+1 
;EEPROM_Data.c,526 :: 		delay_ms(5);
	MOVLW       104
	MOVWF       R12, 0
	MOVLW       228
	MOVWF       R13, 0
L_load_data103:
	DECFSZ      R13, 1, 1
	BRA         L_load_data103
	DECFSZ      R12, 1, 1
	BRA         L_load_data103
	NOP
;EEPROM_Data.c,528 :: 		Loading_Fill(30);
	MOVLW       30
	MOVWF       FARG_Loading_Fill_percent+0 
	CALL        _Loading_Fill+0, 0
;EEPROM_Data.c,529 :: 		Picks4inchE = EEPROM_Read(Picks4inchE_addr);
	MOVLW       20
	MOVWF       FARG_Eeprom_Read_address+0 
	MOVLW       0
	MOVWF       FARG_Eeprom_Read_address+1 
	CALL        _Eeprom_Read+0, 0
	MOVF        R0, 0 
	MOVWF       _Picks4inchE+0 
	MOVLW       0
	MOVWF       _Picks4inchE+1 
;EEPROM_Data.c,530 :: 		delay_ms(30);
	MOVLW       3
	MOVWF       R11, 0
	MOVLW       112
	MOVWF       R12, 0
	MOVLW       92
	MOVWF       R13, 0
L_load_data104:
	DECFSZ      R13, 1, 1
	BRA         L_load_data104
	DECFSZ      R12, 1, 1
	BRA         L_load_data104
	DECFSZ      R11, 1, 1
	BRA         L_load_data104
	NOP
;EEPROM_Data.c,532 :: 		Loading_Fill(32);
	MOVLW       32
	MOVWF       FARG_Loading_Fill_percent+0 
	CALL        _Loading_Fill+0, 0
;EEPROM_Data.c,533 :: 		inchE     = EEPROM_Read_int((InchE_addr_Temp));         //5
	MOVLW       40
	MOVWF       FARG_EEPROM_Read_int_Addr+0 
	MOVLW       0
	MOVWF       FARG_EEPROM_Read_int_Addr+1 
	CALL        _EEPROM_Read_int+0, 0
	CALL        _word2double+0, 0
	MOVF        R0, 0 
	MOVWF       _inchE+0 
	MOVF        R1, 0 
	MOVWF       _inchE+1 
	MOVF        R2, 0 
	MOVWF       _inchE+2 
	MOVF        R3, 0 
	MOVWF       _inchE+3 
;EEPROM_Data.c,534 :: 		delay_ms(30);
	MOVLW       3
	MOVWF       R11, 0
	MOVLW       112
	MOVWF       R12, 0
	MOVLW       92
	MOVWF       R13, 0
L_load_data105:
	DECFSZ      R13, 1, 1
	BRA         L_load_data105
	DECFSZ      R12, 1, 1
	BRA         L_load_data105
	DECFSZ      R11, 1, 1
	BRA         L_load_data105
	NOP
;EEPROM_Data.c,536 :: 		Loading_Fill(34);
	MOVLW       34
	MOVWF       FARG_Loading_Fill_percent+0 
	CALL        _Loading_Fill+0, 0
;EEPROM_Data.c,537 :: 		Pulse_PickE = EEPROM_Read(Pulse_PickE_addr);
	MOVLW       164
	MOVWF       FARG_Eeprom_Read_address+0 
	MOVLW       3
	MOVWF       FARG_Eeprom_Read_address+1 
	CALL        _Eeprom_Read+0, 0
	MOVF        R0, 0 
	MOVWF       _Pulse_PickE+0 
	MOVLW       0
	MOVWF       _Pulse_PickE+1 
;EEPROM_Data.c,538 :: 		delay_ms(30);
	MOVLW       3
	MOVWF       R11, 0
	MOVLW       112
	MOVWF       R12, 0
	MOVLW       92
	MOVWF       R13, 0
L_load_data106:
	DECFSZ      R13, 1, 1
	BRA         L_load_data106
	DECFSZ      R12, 1, 1
	BRA         L_load_data106
	DECFSZ      R11, 1, 1
	BRA         L_load_data106
	NOP
;EEPROM_Data.c,540 :: 		Loading_Fill(36);
	MOVLW       36
	MOVWF       FARG_Loading_Fill_percent+0 
	CALL        _Loading_Fill+0, 0
;EEPROM_Data.c,541 :: 		Picks4inchF = EEPROM_Read(Picks4inchF_addr);
	MOVLW       21
	MOVWF       FARG_Eeprom_Read_address+0 
	MOVLW       0
	MOVWF       FARG_Eeprom_Read_address+1 
	CALL        _Eeprom_Read+0, 0
	MOVF        R0, 0 
	MOVWF       _Picks4inchF+0 
	MOVLW       0
	MOVWF       _Picks4inchF+1 
;EEPROM_Data.c,542 :: 		delay_ms(30);
	MOVLW       3
	MOVWF       R11, 0
	MOVLW       112
	MOVWF       R12, 0
	MOVLW       92
	MOVWF       R13, 0
L_load_data107:
	DECFSZ      R13, 1, 1
	BRA         L_load_data107
	DECFSZ      R12, 1, 1
	BRA         L_load_data107
	DECFSZ      R11, 1, 1
	BRA         L_load_data107
	NOP
;EEPROM_Data.c,544 :: 		Loading_Fill(38);
	MOVLW       38
	MOVWF       FARG_Loading_Fill_percent+0 
	CALL        _Loading_Fill+0, 0
;EEPROM_Data.c,545 :: 		inchF     = EEPROM_Read_int((InchF_addr_Temp));
	MOVLW       42
	MOVWF       FARG_EEPROM_Read_int_Addr+0 
	MOVLW       0
	MOVWF       FARG_EEPROM_Read_int_Addr+1 
	CALL        _EEPROM_Read_int+0, 0
	CALL        _word2double+0, 0
	MOVF        R0, 0 
	MOVWF       _inchF+0 
	MOVF        R1, 0 
	MOVWF       _inchF+1 
	MOVF        R2, 0 
	MOVWF       _inchF+2 
	MOVF        R3, 0 
	MOVWF       _inchF+3 
;EEPROM_Data.c,546 :: 		delay_ms(30);
	MOVLW       3
	MOVWF       R11, 0
	MOVLW       112
	MOVWF       R12, 0
	MOVLW       92
	MOVWF       R13, 0
L_load_data108:
	DECFSZ      R13, 1, 1
	BRA         L_load_data108
	DECFSZ      R12, 1, 1
	BRA         L_load_data108
	DECFSZ      R11, 1, 1
	BRA         L_load_data108
	NOP
;EEPROM_Data.c,548 :: 		Loading_Fill(40);                                                      //6
	MOVLW       40
	MOVWF       FARG_Loading_Fill_percent+0 
	CALL        _Loading_Fill+0, 0
;EEPROM_Data.c,549 :: 		Pulse_PickF = EEPROM_Read(Pulse_PickF_addr);
	MOVLW       165
	MOVWF       FARG_Eeprom_Read_address+0 
	MOVLW       3
	MOVWF       FARG_Eeprom_Read_address+1 
	CALL        _Eeprom_Read+0, 0
	MOVF        R0, 0 
	MOVWF       _Pulse_PickF+0 
	MOVLW       0
	MOVWF       _Pulse_PickF+1 
;EEPROM_Data.c,550 :: 		delay_ms(30);
	MOVLW       3
	MOVWF       R11, 0
	MOVLW       112
	MOVWF       R12, 0
	MOVLW       92
	MOVWF       R13, 0
L_load_data109:
	DECFSZ      R13, 1, 1
	BRA         L_load_data109
	DECFSZ      R12, 1, 1
	BRA         L_load_data109
	DECFSZ      R11, 1, 1
	BRA         L_load_data109
	NOP
;EEPROM_Data.c,552 :: 		Loading_Fill(42);
	MOVLW       42
	MOVWF       FARG_Loading_Fill_percent+0 
	CALL        _Loading_Fill+0, 0
;EEPROM_Data.c,553 :: 		Picks4inchG = EEPROM_Read(Picks4inchG_addr);
	MOVLW       22
	MOVWF       FARG_Eeprom_Read_address+0 
	MOVLW       0
	MOVWF       FARG_Eeprom_Read_address+1 
	CALL        _Eeprom_Read+0, 0
	MOVF        R0, 0 
	MOVWF       _Picks4inchG+0 
	MOVLW       0
	MOVWF       _Picks4inchG+1 
;EEPROM_Data.c,554 :: 		delay_ms(30);
	MOVLW       3
	MOVWF       R11, 0
	MOVLW       112
	MOVWF       R12, 0
	MOVLW       92
	MOVWF       R13, 0
L_load_data110:
	DECFSZ      R13, 1, 1
	BRA         L_load_data110
	DECFSZ      R12, 1, 1
	BRA         L_load_data110
	DECFSZ      R11, 1, 1
	BRA         L_load_data110
	NOP
;EEPROM_Data.c,556 :: 		Loading_Fill(44);
	MOVLW       44
	MOVWF       FARG_Loading_Fill_percent+0 
	CALL        _Loading_Fill+0, 0
;EEPROM_Data.c,557 :: 		inchG     = EEPROM_Read_int((InchG_addr_Temp));
	MOVLW       44
	MOVWF       FARG_EEPROM_Read_int_Addr+0 
	MOVLW       0
	MOVWF       FARG_EEPROM_Read_int_Addr+1 
	CALL        _EEPROM_Read_int+0, 0
	CALL        _word2double+0, 0
	MOVF        R0, 0 
	MOVWF       _inchG+0 
	MOVF        R1, 0 
	MOVWF       _inchG+1 
	MOVF        R2, 0 
	MOVWF       _inchG+2 
	MOVF        R3, 0 
	MOVWF       _inchG+3 
;EEPROM_Data.c,558 :: 		delay_ms(30);
	MOVLW       3
	MOVWF       R11, 0
	MOVLW       112
	MOVWF       R12, 0
	MOVLW       92
	MOVWF       R13, 0
L_load_data111:
	DECFSZ      R13, 1, 1
	BRA         L_load_data111
	DECFSZ      R12, 1, 1
	BRA         L_load_data111
	DECFSZ      R11, 1, 1
	BRA         L_load_data111
	NOP
;EEPROM_Data.c,560 :: 		Loading_Fill(46);                                                      //7
	MOVLW       46
	MOVWF       FARG_Loading_Fill_percent+0 
	CALL        _Loading_Fill+0, 0
;EEPROM_Data.c,561 :: 		Pulse_PickG = EEPROM_Read(Pulse_PickG_addr);
	MOVLW       166
	MOVWF       FARG_Eeprom_Read_address+0 
	MOVLW       3
	MOVWF       FARG_Eeprom_Read_address+1 
	CALL        _Eeprom_Read+0, 0
	MOVF        R0, 0 
	MOVWF       _Pulse_PickG+0 
	MOVLW       0
	MOVWF       _Pulse_PickG+1 
;EEPROM_Data.c,562 :: 		delay_ms(30);
	MOVLW       3
	MOVWF       R11, 0
	MOVLW       112
	MOVWF       R12, 0
	MOVLW       92
	MOVWF       R13, 0
L_load_data112:
	DECFSZ      R13, 1, 1
	BRA         L_load_data112
	DECFSZ      R12, 1, 1
	BRA         L_load_data112
	DECFSZ      R11, 1, 1
	BRA         L_load_data112
	NOP
;EEPROM_Data.c,564 :: 		Loading_Fill(48);
	MOVLW       48
	MOVWF       FARG_Loading_Fill_percent+0 
	CALL        _Loading_Fill+0, 0
;EEPROM_Data.c,565 :: 		Picks4inchH = EEPROM_Read(Picks4inchH_addr);
	MOVLW       23
	MOVWF       FARG_Eeprom_Read_address+0 
	MOVLW       0
	MOVWF       FARG_Eeprom_Read_address+1 
	CALL        _Eeprom_Read+0, 0
	MOVF        R0, 0 
	MOVWF       _Picks4inchH+0 
	MOVLW       0
	MOVWF       _Picks4inchH+1 
;EEPROM_Data.c,566 :: 		delay_ms(30);
	MOVLW       3
	MOVWF       R11, 0
	MOVLW       112
	MOVWF       R12, 0
	MOVLW       92
	MOVWF       R13, 0
L_load_data113:
	DECFSZ      R13, 1, 1
	BRA         L_load_data113
	DECFSZ      R12, 1, 1
	BRA         L_load_data113
	DECFSZ      R11, 1, 1
	BRA         L_load_data113
	NOP
;EEPROM_Data.c,568 :: 		Loading_Fill(50);
	MOVLW       50
	MOVWF       FARG_Loading_Fill_percent+0 
	CALL        _Loading_Fill+0, 0
;EEPROM_Data.c,569 :: 		inchH     = EEPROM_Read_int((InchH_addr_Temp));         //8
	MOVLW       46
	MOVWF       FARG_EEPROM_Read_int_Addr+0 
	MOVLW       0
	MOVWF       FARG_EEPROM_Read_int_Addr+1 
	CALL        _EEPROM_Read_int+0, 0
	CALL        _word2double+0, 0
	MOVF        R0, 0 
	MOVWF       _inchH+0 
	MOVF        R1, 0 
	MOVWF       _inchH+1 
	MOVF        R2, 0 
	MOVWF       _inchH+2 
	MOVF        R3, 0 
	MOVWF       _inchH+3 
;EEPROM_Data.c,570 :: 		delay_ms(30);
	MOVLW       3
	MOVWF       R11, 0
	MOVLW       112
	MOVWF       R12, 0
	MOVLW       92
	MOVWF       R13, 0
L_load_data114:
	DECFSZ      R13, 1, 1
	BRA         L_load_data114
	DECFSZ      R12, 1, 1
	BRA         L_load_data114
	DECFSZ      R11, 1, 1
	BRA         L_load_data114
	NOP
;EEPROM_Data.c,572 :: 		Loading_Fill(52);
	MOVLW       52
	MOVWF       FARG_Loading_Fill_percent+0 
	CALL        _Loading_Fill+0, 0
;EEPROM_Data.c,573 :: 		Pulse_PickH = EEPROM_Read(Pulse_PickH_addr);
	MOVLW       167
	MOVWF       FARG_Eeprom_Read_address+0 
	MOVLW       3
	MOVWF       FARG_Eeprom_Read_address+1 
	CALL        _Eeprom_Read+0, 0
	MOVF        R0, 0 
	MOVWF       _Pulse_PickH+0 
	MOVLW       0
	MOVWF       _Pulse_PickH+1 
;EEPROM_Data.c,574 :: 		delay_ms(30);
	MOVLW       3
	MOVWF       R11, 0
	MOVLW       112
	MOVWF       R12, 0
	MOVLW       92
	MOVWF       R13, 0
L_load_data115:
	DECFSZ      R13, 1, 1
	BRA         L_load_data115
	DECFSZ      R12, 1, 1
	BRA         L_load_data115
	DECFSZ      R11, 1, 1
	BRA         L_load_data115
	NOP
;EEPROM_Data.c,576 :: 		Loading_Fill(54);
	MOVLW       54
	MOVWF       FARG_Loading_Fill_percent+0 
	CALL        _Loading_Fill+0, 0
;EEPROM_Data.c,577 :: 		Picks4inchI = EEPROM_Read(Picks4inchI_addr);
	MOVLW       24
	MOVWF       FARG_Eeprom_Read_address+0 
	MOVLW       0
	MOVWF       FARG_Eeprom_Read_address+1 
	CALL        _Eeprom_Read+0, 0
	MOVF        R0, 0 
	MOVWF       _Picks4inchI+0 
	MOVLW       0
	MOVWF       _Picks4inchI+1 
;EEPROM_Data.c,578 :: 		delay_ms(30);
	MOVLW       3
	MOVWF       R11, 0
	MOVLW       112
	MOVWF       R12, 0
	MOVLW       92
	MOVWF       R13, 0
L_load_data116:
	DECFSZ      R13, 1, 1
	BRA         L_load_data116
	DECFSZ      R12, 1, 1
	BRA         L_load_data116
	DECFSZ      R11, 1, 1
	BRA         L_load_data116
	NOP
;EEPROM_Data.c,579 :: 		Loading_Fill(56);
	MOVLW       56
	MOVWF       FARG_Loading_Fill_percent+0 
	CALL        _Loading_Fill+0, 0
;EEPROM_Data.c,580 :: 		inchI     = EEPROM_Read_int((InchI_addr_Temp));          //9
	MOVLW       48
	MOVWF       FARG_EEPROM_Read_int_Addr+0 
	MOVLW       0
	MOVWF       FARG_EEPROM_Read_int_Addr+1 
	CALL        _EEPROM_Read_int+0, 0
	CALL        _word2double+0, 0
	MOVF        R0, 0 
	MOVWF       _inchI+0 
	MOVF        R1, 0 
	MOVWF       _inchI+1 
	MOVF        R2, 0 
	MOVWF       _inchI+2 
	MOVF        R3, 0 
	MOVWF       _inchI+3 
;EEPROM_Data.c,581 :: 		delay_ms(30);
	MOVLW       3
	MOVWF       R11, 0
	MOVLW       112
	MOVWF       R12, 0
	MOVLW       92
	MOVWF       R13, 0
L_load_data117:
	DECFSZ      R13, 1, 1
	BRA         L_load_data117
	DECFSZ      R12, 1, 1
	BRA         L_load_data117
	DECFSZ      R11, 1, 1
	BRA         L_load_data117
	NOP
;EEPROM_Data.c,583 :: 		Loading_Fill(58);
	MOVLW       58
	MOVWF       FARG_Loading_Fill_percent+0 
	CALL        _Loading_Fill+0, 0
;EEPROM_Data.c,584 :: 		Pulse_PickI = EEPROM_Read(Pulse_PickI_addr);
	MOVLW       168
	MOVWF       FARG_Eeprom_Read_address+0 
	MOVLW       3
	MOVWF       FARG_Eeprom_Read_address+1 
	CALL        _Eeprom_Read+0, 0
	MOVF        R0, 0 
	MOVWF       _Pulse_PickI+0 
	MOVLW       0
	MOVWF       _Pulse_PickI+1 
;EEPROM_Data.c,585 :: 		delay_ms(30);
	MOVLW       3
	MOVWF       R11, 0
	MOVLW       112
	MOVWF       R12, 0
	MOVLW       92
	MOVWF       R13, 0
L_load_data118:
	DECFSZ      R13, 1, 1
	BRA         L_load_data118
	DECFSZ      R12, 1, 1
	BRA         L_load_data118
	DECFSZ      R11, 1, 1
	BRA         L_load_data118
	NOP
;EEPROM_Data.c,587 :: 		Loading_Fill(60);
	MOVLW       60
	MOVWF       FARG_Loading_Fill_percent+0 
	CALL        _Loading_Fill+0, 0
;EEPROM_Data.c,588 :: 		Picks4inchJ = EEPROM_Read(Picks4inchJ_addr);
	MOVLW       25
	MOVWF       FARG_Eeprom_Read_address+0 
	MOVLW       0
	MOVWF       FARG_Eeprom_Read_address+1 
	CALL        _Eeprom_Read+0, 0
	MOVF        R0, 0 
	MOVWF       _Picks4inchJ+0 
	MOVLW       0
	MOVWF       _Picks4inchJ+1 
;EEPROM_Data.c,589 :: 		delay_ms(30);
	MOVLW       3
	MOVWF       R11, 0
	MOVLW       112
	MOVWF       R12, 0
	MOVLW       92
	MOVWF       R13, 0
L_load_data119:
	DECFSZ      R13, 1, 1
	BRA         L_load_data119
	DECFSZ      R12, 1, 1
	BRA         L_load_data119
	DECFSZ      R11, 1, 1
	BRA         L_load_data119
	NOP
;EEPROM_Data.c,591 :: 		Loading_Fill(62);
	MOVLW       62
	MOVWF       FARG_Loading_Fill_percent+0 
	CALL        _Loading_Fill+0, 0
;EEPROM_Data.c,592 :: 		inchJ     = EEPROM_Read_int((InchJ_addr_Temp));         //10
	MOVLW       50
	MOVWF       FARG_EEPROM_Read_int_Addr+0 
	MOVLW       0
	MOVWF       FARG_EEPROM_Read_int_Addr+1 
	CALL        _EEPROM_Read_int+0, 0
	CALL        _word2double+0, 0
	MOVF        R0, 0 
	MOVWF       _inchJ+0 
	MOVF        R1, 0 
	MOVWF       _inchJ+1 
	MOVF        R2, 0 
	MOVWF       _inchJ+2 
	MOVF        R3, 0 
	MOVWF       _inchJ+3 
;EEPROM_Data.c,593 :: 		delay_ms(30);
	MOVLW       3
	MOVWF       R11, 0
	MOVLW       112
	MOVWF       R12, 0
	MOVLW       92
	MOVWF       R13, 0
L_load_data120:
	DECFSZ      R13, 1, 1
	BRA         L_load_data120
	DECFSZ      R12, 1, 1
	BRA         L_load_data120
	DECFSZ      R11, 1, 1
	BRA         L_load_data120
	NOP
;EEPROM_Data.c,595 :: 		Loading_Fill(64);
	MOVLW       64
	MOVWF       FARG_Loading_Fill_percent+0 
	CALL        _Loading_Fill+0, 0
;EEPROM_Data.c,596 :: 		Pulse_PickJ = EEPROM_Read(Pulse_PickJ_addr);
	MOVLW       169
	MOVWF       FARG_Eeprom_Read_address+0 
	MOVLW       3
	MOVWF       FARG_Eeprom_Read_address+1 
	CALL        _Eeprom_Read+0, 0
	MOVF        R0, 0 
	MOVWF       _Pulse_PickJ+0 
	MOVLW       0
	MOVWF       _Pulse_PickJ+1 
;EEPROM_Data.c,597 :: 		delay_ms(30);
	MOVLW       3
	MOVWF       R11, 0
	MOVLW       112
	MOVWF       R12, 0
	MOVLW       92
	MOVWF       R13, 0
L_load_data121:
	DECFSZ      R13, 1, 1
	BRA         L_load_data121
	DECFSZ      R12, 1, 1
	BRA         L_load_data121
	DECFSZ      R11, 1, 1
	BRA         L_load_data121
	NOP
;EEPROM_Data.c,599 :: 		Loading_Fill(66);
	MOVLW       66
	MOVWF       FARG_Loading_Fill_percent+0 
	CALL        _Loading_Fill+0, 0
;EEPROM_Data.c,600 :: 		Picks4inchK = EEPROM_Read(Picks4inchK_addr);
	MOVLW       26
	MOVWF       FARG_Eeprom_Read_address+0 
	MOVLW       0
	MOVWF       FARG_Eeprom_Read_address+1 
	CALL        _Eeprom_Read+0, 0
	MOVF        R0, 0 
	MOVWF       _Picks4inchK+0 
	MOVLW       0
	MOVWF       _Picks4inchK+1 
;EEPROM_Data.c,601 :: 		delay_ms(30);
	MOVLW       3
	MOVWF       R11, 0
	MOVLW       112
	MOVWF       R12, 0
	MOVLW       92
	MOVWF       R13, 0
L_load_data122:
	DECFSZ      R13, 1, 1
	BRA         L_load_data122
	DECFSZ      R12, 1, 1
	BRA         L_load_data122
	DECFSZ      R11, 1, 1
	BRA         L_load_data122
	NOP
;EEPROM_Data.c,603 :: 		Loading_Fill(68);
	MOVLW       68
	MOVWF       FARG_Loading_Fill_percent+0 
	CALL        _Loading_Fill+0, 0
;EEPROM_Data.c,604 :: 		inchK     = EEPROM_Read_int((InchK_addr_Temp));          //11
	MOVLW       52
	MOVWF       FARG_EEPROM_Read_int_Addr+0 
	MOVLW       0
	MOVWF       FARG_EEPROM_Read_int_Addr+1 
	CALL        _EEPROM_Read_int+0, 0
	CALL        _word2double+0, 0
	MOVF        R0, 0 
	MOVWF       _inchK+0 
	MOVF        R1, 0 
	MOVWF       _inchK+1 
	MOVF        R2, 0 
	MOVWF       _inchK+2 
	MOVF        R3, 0 
	MOVWF       _inchK+3 
;EEPROM_Data.c,605 :: 		delay_ms(30);
	MOVLW       3
	MOVWF       R11, 0
	MOVLW       112
	MOVWF       R12, 0
	MOVLW       92
	MOVWF       R13, 0
L_load_data123:
	DECFSZ      R13, 1, 1
	BRA         L_load_data123
	DECFSZ      R12, 1, 1
	BRA         L_load_data123
	DECFSZ      R11, 1, 1
	BRA         L_load_data123
	NOP
;EEPROM_Data.c,607 :: 		Loading_Fill(70);
	MOVLW       70
	MOVWF       FARG_Loading_Fill_percent+0 
	CALL        _Loading_Fill+0, 0
;EEPROM_Data.c,608 :: 		Pulse_PickK = EEPROM_Read(Pulse_PickK_addr);
	MOVLW       170
	MOVWF       FARG_Eeprom_Read_address+0 
	MOVLW       3
	MOVWF       FARG_Eeprom_Read_address+1 
	CALL        _Eeprom_Read+0, 0
	MOVF        R0, 0 
	MOVWF       _Pulse_PickK+0 
	MOVLW       0
	MOVWF       _Pulse_PickK+1 
;EEPROM_Data.c,609 :: 		delay_ms(30);
	MOVLW       3
	MOVWF       R11, 0
	MOVLW       112
	MOVWF       R12, 0
	MOVLW       92
	MOVWF       R13, 0
L_load_data124:
	DECFSZ      R13, 1, 1
	BRA         L_load_data124
	DECFSZ      R12, 1, 1
	BRA         L_load_data124
	DECFSZ      R11, 1, 1
	BRA         L_load_data124
	NOP
;EEPROM_Data.c,611 :: 		Loading_Fill(72);
	MOVLW       72
	MOVWF       FARG_Loading_Fill_percent+0 
	CALL        _Loading_Fill+0, 0
;EEPROM_Data.c,612 :: 		Picks4inchL = EEPROM_Read(Picks4inchL_addr);
	MOVLW       27
	MOVWF       FARG_Eeprom_Read_address+0 
	MOVLW       0
	MOVWF       FARG_Eeprom_Read_address+1 
	CALL        _Eeprom_Read+0, 0
	MOVF        R0, 0 
	MOVWF       _Picks4inchL+0 
	MOVLW       0
	MOVWF       _Picks4inchL+1 
;EEPROM_Data.c,613 :: 		delay_ms(30);
	MOVLW       3
	MOVWF       R11, 0
	MOVLW       112
	MOVWF       R12, 0
	MOVLW       92
	MOVWF       R13, 0
L_load_data125:
	DECFSZ      R13, 1, 1
	BRA         L_load_data125
	DECFSZ      R12, 1, 1
	BRA         L_load_data125
	DECFSZ      R11, 1, 1
	BRA         L_load_data125
	NOP
;EEPROM_Data.c,615 :: 		Loading_Fill(74);                                                      //12
	MOVLW       74
	MOVWF       FARG_Loading_Fill_percent+0 
	CALL        _Loading_Fill+0, 0
;EEPROM_Data.c,616 :: 		inchL     = EEPROM_Read_int((InchL_addr_Temp));
	MOVLW       54
	MOVWF       FARG_EEPROM_Read_int_Addr+0 
	MOVLW       0
	MOVWF       FARG_EEPROM_Read_int_Addr+1 
	CALL        _EEPROM_Read_int+0, 0
	CALL        _word2double+0, 0
	MOVF        R0, 0 
	MOVWF       _inchL+0 
	MOVF        R1, 0 
	MOVWF       _inchL+1 
	MOVF        R2, 0 
	MOVWF       _inchL+2 
	MOVF        R3, 0 
	MOVWF       _inchL+3 
;EEPROM_Data.c,617 :: 		delay_ms(30);
	MOVLW       3
	MOVWF       R11, 0
	MOVLW       112
	MOVWF       R12, 0
	MOVLW       92
	MOVWF       R13, 0
L_load_data126:
	DECFSZ      R13, 1, 1
	BRA         L_load_data126
	DECFSZ      R12, 1, 1
	BRA         L_load_data126
	DECFSZ      R11, 1, 1
	BRA         L_load_data126
	NOP
;EEPROM_Data.c,619 :: 		Loading_Fill(76);
	MOVLW       76
	MOVWF       FARG_Loading_Fill_percent+0 
	CALL        _Loading_Fill+0, 0
;EEPROM_Data.c,620 :: 		Pulse_PickL = EEPROM_Read(Pulse_PickL_addr);
	MOVLW       171
	MOVWF       FARG_Eeprom_Read_address+0 
	MOVLW       3
	MOVWF       FARG_Eeprom_Read_address+1 
	CALL        _Eeprom_Read+0, 0
	MOVF        R0, 0 
	MOVWF       _Pulse_PickL+0 
	MOVLW       0
	MOVWF       _Pulse_PickL+1 
;EEPROM_Data.c,621 :: 		delay_ms(30);
	MOVLW       3
	MOVWF       R11, 0
	MOVLW       112
	MOVWF       R12, 0
	MOVLW       92
	MOVWF       R13, 0
L_load_data127:
	DECFSZ      R13, 1, 1
	BRA         L_load_data127
	DECFSZ      R12, 1, 1
	BRA         L_load_data127
	DECFSZ      R11, 1, 1
	BRA         L_load_data127
	NOP
;EEPROM_Data.c,623 :: 		Loading_Fill(78);
	MOVLW       78
	MOVWF       FARG_Loading_Fill_percent+0 
	CALL        _Loading_Fill+0, 0
;EEPROM_Data.c,624 :: 		Picks4inchM = EEPROM_Read(Picks4inchM_addr);
	MOVLW       28
	MOVWF       FARG_Eeprom_Read_address+0 
	MOVLW       0
	MOVWF       FARG_Eeprom_Read_address+1 
	CALL        _Eeprom_Read+0, 0
	MOVF        R0, 0 
	MOVWF       _Picks4inchM+0 
	MOVLW       0
	MOVWF       _Picks4inchM+1 
;EEPROM_Data.c,625 :: 		delay_ms(30);
	MOVLW       3
	MOVWF       R11, 0
	MOVLW       112
	MOVWF       R12, 0
	MOVLW       92
	MOVWF       R13, 0
L_load_data128:
	DECFSZ      R13, 1, 1
	BRA         L_load_data128
	DECFSZ      R12, 1, 1
	BRA         L_load_data128
	DECFSZ      R11, 1, 1
	BRA         L_load_data128
	NOP
;EEPROM_Data.c,627 :: 		Loading_Fill(80);                                                       //13
	MOVLW       80
	MOVWF       FARG_Loading_Fill_percent+0 
	CALL        _Loading_Fill+0, 0
;EEPROM_Data.c,628 :: 		inchM     = EEPROM_Read_int((InchM_addr_Temp));
	MOVLW       56
	MOVWF       FARG_EEPROM_Read_int_Addr+0 
	MOVLW       0
	MOVWF       FARG_EEPROM_Read_int_Addr+1 
	CALL        _EEPROM_Read_int+0, 0
	CALL        _word2double+0, 0
	MOVF        R0, 0 
	MOVWF       _inchM+0 
	MOVF        R1, 0 
	MOVWF       _inchM+1 
	MOVF        R2, 0 
	MOVWF       _inchM+2 
	MOVF        R3, 0 
	MOVWF       _inchM+3 
;EEPROM_Data.c,629 :: 		delay_ms(30);
	MOVLW       3
	MOVWF       R11, 0
	MOVLW       112
	MOVWF       R12, 0
	MOVLW       92
	MOVWF       R13, 0
L_load_data129:
	DECFSZ      R13, 1, 1
	BRA         L_load_data129
	DECFSZ      R12, 1, 1
	BRA         L_load_data129
	DECFSZ      R11, 1, 1
	BRA         L_load_data129
	NOP
;EEPROM_Data.c,631 :: 		Loading_Fill(82);
	MOVLW       82
	MOVWF       FARG_Loading_Fill_percent+0 
	CALL        _Loading_Fill+0, 0
;EEPROM_Data.c,632 :: 		Pulse_PickM = EEPROM_Read(Pulse_PickM_addr);
	MOVLW       172
	MOVWF       FARG_Eeprom_Read_address+0 
	MOVLW       3
	MOVWF       FARG_Eeprom_Read_address+1 
	CALL        _Eeprom_Read+0, 0
	MOVF        R0, 0 
	MOVWF       _Pulse_PickM+0 
	MOVLW       0
	MOVWF       _Pulse_PickM+1 
;EEPROM_Data.c,633 :: 		delay_ms(30);
	MOVLW       3
	MOVWF       R11, 0
	MOVLW       112
	MOVWF       R12, 0
	MOVLW       92
	MOVWF       R13, 0
L_load_data130:
	DECFSZ      R13, 1, 1
	BRA         L_load_data130
	DECFSZ      R12, 1, 1
	BRA         L_load_data130
	DECFSZ      R11, 1, 1
	BRA         L_load_data130
	NOP
;EEPROM_Data.c,635 :: 		Loading_Fill(84);
	MOVLW       84
	MOVWF       FARG_Loading_Fill_percent+0 
	CALL        _Loading_Fill+0, 0
;EEPROM_Data.c,636 :: 		Picks4inchN = EEPROM_Read(Picks4inchN_addr);
	MOVLW       29
	MOVWF       FARG_Eeprom_Read_address+0 
	MOVLW       0
	MOVWF       FARG_Eeprom_Read_address+1 
	CALL        _Eeprom_Read+0, 0
	MOVF        R0, 0 
	MOVWF       _Picks4inchN+0 
	MOVLW       0
	MOVWF       _Picks4inchN+1 
;EEPROM_Data.c,637 :: 		delay_ms(30);
	MOVLW       3
	MOVWF       R11, 0
	MOVLW       112
	MOVWF       R12, 0
	MOVLW       92
	MOVWF       R13, 0
L_load_data131:
	DECFSZ      R13, 1, 1
	BRA         L_load_data131
	DECFSZ      R12, 1, 1
	BRA         L_load_data131
	DECFSZ      R11, 1, 1
	BRA         L_load_data131
	NOP
;EEPROM_Data.c,639 :: 		Loading_Fill(86);
	MOVLW       86
	MOVWF       FARG_Loading_Fill_percent+0 
	CALL        _Loading_Fill+0, 0
;EEPROM_Data.c,640 :: 		inchN     = EEPROM_Read_int((InchN_addr_Temp));          //14
	MOVLW       58
	MOVWF       FARG_EEPROM_Read_int_Addr+0 
	MOVLW       0
	MOVWF       FARG_EEPROM_Read_int_Addr+1 
	CALL        _EEPROM_Read_int+0, 0
	CALL        _word2double+0, 0
	MOVF        R0, 0 
	MOVWF       _inchN+0 
	MOVF        R1, 0 
	MOVWF       _inchN+1 
	MOVF        R2, 0 
	MOVWF       _inchN+2 
	MOVF        R3, 0 
	MOVWF       _inchN+3 
;EEPROM_Data.c,641 :: 		delay_ms(30);
	MOVLW       3
	MOVWF       R11, 0
	MOVLW       112
	MOVWF       R12, 0
	MOVLW       92
	MOVWF       R13, 0
L_load_data132:
	DECFSZ      R13, 1, 1
	BRA         L_load_data132
	DECFSZ      R12, 1, 1
	BRA         L_load_data132
	DECFSZ      R11, 1, 1
	BRA         L_load_data132
	NOP
;EEPROM_Data.c,643 :: 		Loading_Fill(88);
	MOVLW       88
	MOVWF       FARG_Loading_Fill_percent+0 
	CALL        _Loading_Fill+0, 0
;EEPROM_Data.c,644 :: 		Pulse_PickN = EEPROM_Read(Pulse_PickN_addr);
	MOVLW       173
	MOVWF       FARG_Eeprom_Read_address+0 
	MOVLW       3
	MOVWF       FARG_Eeprom_Read_address+1 
	CALL        _Eeprom_Read+0, 0
	MOVF        R0, 0 
	MOVWF       _Pulse_PickN+0 
	MOVLW       0
	MOVWF       _Pulse_PickN+1 
;EEPROM_Data.c,645 :: 		delay_ms(30);
	MOVLW       3
	MOVWF       R11, 0
	MOVLW       112
	MOVWF       R12, 0
	MOVLW       92
	MOVWF       R13, 0
L_load_data133:
	DECFSZ      R13, 1, 1
	BRA         L_load_data133
	DECFSZ      R12, 1, 1
	BRA         L_load_data133
	DECFSZ      R11, 1, 1
	BRA         L_load_data133
	NOP
;EEPROM_Data.c,647 :: 		Loading_Fill(90);
	MOVLW       90
	MOVWF       FARG_Loading_Fill_percent+0 
	CALL        _Loading_Fill+0, 0
;EEPROM_Data.c,648 :: 		Picks4inchO = EEPROM_Read(Picks4inchO_addr);
	MOVLW       30
	MOVWF       FARG_Eeprom_Read_address+0 
	MOVLW       0
	MOVWF       FARG_Eeprom_Read_address+1 
	CALL        _Eeprom_Read+0, 0
	MOVF        R0, 0 
	MOVWF       _Picks4inchO+0 
	MOVLW       0
	MOVWF       _Picks4inchO+1 
;EEPROM_Data.c,649 :: 		delay_ms(30);
	MOVLW       3
	MOVWF       R11, 0
	MOVLW       112
	MOVWF       R12, 0
	MOVLW       92
	MOVWF       R13, 0
L_load_data134:
	DECFSZ      R13, 1, 1
	BRA         L_load_data134
	DECFSZ      R12, 1, 1
	BRA         L_load_data134
	DECFSZ      R11, 1, 1
	BRA         L_load_data134
	NOP
;EEPROM_Data.c,651 :: 		Loading_Fill(92);
	MOVLW       92
	MOVWF       FARG_Loading_Fill_percent+0 
	CALL        _Loading_Fill+0, 0
;EEPROM_Data.c,652 :: 		inchO     = EEPROM_Read_int((InchO_addr_Temp));           //15
	MOVLW       60
	MOVWF       FARG_EEPROM_Read_int_Addr+0 
	MOVLW       0
	MOVWF       FARG_EEPROM_Read_int_Addr+1 
	CALL        _EEPROM_Read_int+0, 0
	CALL        _word2double+0, 0
	MOVF        R0, 0 
	MOVWF       _inchO+0 
	MOVF        R1, 0 
	MOVWF       _inchO+1 
	MOVF        R2, 0 
	MOVWF       _inchO+2 
	MOVF        R3, 0 
	MOVWF       _inchO+3 
;EEPROM_Data.c,653 :: 		delay_ms(30);
	MOVLW       3
	MOVWF       R11, 0
	MOVLW       112
	MOVWF       R12, 0
	MOVLW       92
	MOVWF       R13, 0
L_load_data135:
	DECFSZ      R13, 1, 1
	BRA         L_load_data135
	DECFSZ      R12, 1, 1
	BRA         L_load_data135
	DECFSZ      R11, 1, 1
	BRA         L_load_data135
	NOP
;EEPROM_Data.c,655 :: 		Loading_Fill(94);
	MOVLW       94
	MOVWF       FARG_Loading_Fill_percent+0 
	CALL        _Loading_Fill+0, 0
;EEPROM_Data.c,656 :: 		Pulse_PickO = EEPROM_Read(Pulse_PickO_addr);
	MOVLW       174
	MOVWF       FARG_Eeprom_Read_address+0 
	MOVLW       3
	MOVWF       FARG_Eeprom_Read_address+1 
	CALL        _Eeprom_Read+0, 0
	MOVF        R0, 0 
	MOVWF       _Pulse_PickO+0 
	MOVLW       0
	MOVWF       _Pulse_PickO+1 
;EEPROM_Data.c,657 :: 		delay_ms(30);
	MOVLW       3
	MOVWF       R11, 0
	MOVLW       112
	MOVWF       R12, 0
	MOVLW       92
	MOVWF       R13, 0
L_load_data136:
	DECFSZ      R13, 1, 1
	BRA         L_load_data136
	DECFSZ      R12, 1, 1
	BRA         L_load_data136
	DECFSZ      R11, 1, 1
	BRA         L_load_data136
	NOP
;EEPROM_Data.c,659 :: 		Loading_Fill(96);
	MOVLW       96
	MOVWF       FARG_Loading_Fill_percent+0 
	CALL        _Loading_Fill+0, 0
;EEPROM_Data.c,660 :: 		Picks4inchP = EEPROM_Read(Picks4inchP_addr);
	MOVLW       31
	MOVWF       FARG_Eeprom_Read_address+0 
	MOVLW       0
	MOVWF       FARG_Eeprom_Read_address+1 
	CALL        _Eeprom_Read+0, 0
	MOVF        R0, 0 
	MOVWF       _Picks4inchP+0 
	MOVLW       0
	MOVWF       _Picks4inchP+1 
;EEPROM_Data.c,661 :: 		delay_ms(30);
	MOVLW       3
	MOVWF       R11, 0
	MOVLW       112
	MOVWF       R12, 0
	MOVLW       92
	MOVWF       R13, 0
L_load_data137:
	DECFSZ      R13, 1, 1
	BRA         L_load_data137
	DECFSZ      R12, 1, 1
	BRA         L_load_data137
	DECFSZ      R11, 1, 1
	BRA         L_load_data137
	NOP
;EEPROM_Data.c,663 :: 		Loading_Fill(98);
	MOVLW       98
	MOVWF       FARG_Loading_Fill_percent+0 
	CALL        _Loading_Fill+0, 0
;EEPROM_Data.c,664 :: 		inchP     = EEPROM_Read_int((InchP_addr_Temp));            //16
	MOVLW       62
	MOVWF       FARG_EEPROM_Read_int_Addr+0 
	MOVLW       0
	MOVWF       FARG_EEPROM_Read_int_Addr+1 
	CALL        _EEPROM_Read_int+0, 0
	CALL        _word2double+0, 0
	MOVF        R0, 0 
	MOVWF       _inchP+0 
	MOVF        R1, 0 
	MOVWF       _inchP+1 
	MOVF        R2, 0 
	MOVWF       _inchP+2 
	MOVF        R3, 0 
	MOVWF       _inchP+3 
;EEPROM_Data.c,665 :: 		delay_ms(30);
	MOVLW       3
	MOVWF       R11, 0
	MOVLW       112
	MOVWF       R12, 0
	MOVLW       92
	MOVWF       R13, 0
L_load_data138:
	DECFSZ      R13, 1, 1
	BRA         L_load_data138
	DECFSZ      R12, 1, 1
	BRA         L_load_data138
	DECFSZ      R11, 1, 1
	BRA         L_load_data138
	NOP
;EEPROM_Data.c,666 :: 		Pulse_PickP = EEPROM_Read(Pulse_PickP_addr);
	MOVLW       175
	MOVWF       FARG_Eeprom_Read_address+0 
	MOVLW       3
	MOVWF       FARG_Eeprom_Read_address+1 
	CALL        _Eeprom_Read+0, 0
	MOVF        R0, 0 
	MOVWF       _Pulse_PickP+0 
	MOVLW       0
	MOVWF       _Pulse_PickP+1 
;EEPROM_Data.c,667 :: 		delay_ms(30);
	MOVLW       3
	MOVWF       R11, 0
	MOVLW       112
	MOVWF       R12, 0
	MOVLW       92
	MOVWF       R13, 0
L_load_data139:
	DECFSZ      R13, 1, 1
	BRA         L_load_data139
	DECFSZ      R12, 1, 1
	BRA         L_load_data139
	DECFSZ      R11, 1, 1
	BRA         L_load_data139
	NOP
;EEPROM_Data.c,669 :: 		Loom_Starting_value=EEPROM_Read(Loom_Starting_NO_addr);
	MOVLW       64
	MOVWF       FARG_Eeprom_Read_address+0 
	MOVLW       0
	MOVWF       FARG_Eeprom_Read_address+1 
	CALL        _Eeprom_Read+0, 0
	MOVF        R0, 0 
	MOVWF       _Loom_Starting_value+0 
;EEPROM_Data.c,670 :: 		delay_ms(30);
	MOVLW       3
	MOVWF       R11, 0
	MOVLW       112
	MOVWF       R12, 0
	MOVLW       92
	MOVWF       R13, 0
L_load_data140:
	DECFSZ      R13, 1, 1
	BRA         L_load_data140
	DECFSZ      R12, 1, 1
	BRA         L_load_data140
	DECFSZ      R11, 1, 1
	BRA         L_load_data140
	NOP
;EEPROM_Data.c,673 :: 		Meter_Or_Picks_Sel=EEPROM_Read (Meter_Or_Picks_Sel_addr); //read
	MOVLW       65
	MOVWF       FARG_Eeprom_Read_address+0 
	MOVLW       0
	MOVWF       FARG_Eeprom_Read_address+1 
	CALL        _Eeprom_Read+0, 0
	BTFSC       R0, 0 
	GOTO        L__load_data240
	BCF         _Meter_Or_Picks_Sel+0, BitPos(_Meter_Or_Picks_Sel+0) 
	GOTO        L__load_data241
L__load_data240:
	BSF         _Meter_Or_Picks_Sel+0, BitPos(_Meter_Or_Picks_Sel+0) 
L__load_data241:
;EEPROM_Data.c,674 :: 		delay_ms(30);
	MOVLW       3
	MOVWF       R11, 0
	MOVLW       112
	MOVWF       R12, 0
	MOVLW       92
	MOVWF       R13, 0
L_load_data141:
	DECFSZ      R13, 1, 1
	BRA         L_load_data141
	DECFSZ      R12, 1, 1
	BRA         L_load_data141
	DECFSZ      R11, 1, 1
	BRA         L_load_data141
	NOP
;EEPROM_Data.c,675 :: 		Inch_Or_Pay_Sel=EEPROM_Read (Inch_Or_Pay_Sel_addr); //read
	MOVLW       66
	MOVWF       FARG_Eeprom_Read_address+0 
	MOVLW       0
	MOVWF       FARG_Eeprom_Read_address+1 
	CALL        _Eeprom_Read+0, 0
	BTFSC       R0, 0 
	GOTO        L__load_data242
	BCF         _Inch_Or_Pay_Sel+0, BitPos(_Inch_Or_Pay_Sel+0) 
	GOTO        L__load_data243
L__load_data242:
	BSF         _Inch_Or_Pay_Sel+0, BitPos(_Inch_Or_Pay_Sel+0) 
L__load_data243:
;EEPROM_Data.c,676 :: 		delay_ms(30);
	MOVLW       3
	MOVWF       R11, 0
	MOVLW       112
	MOVWF       R12, 0
	MOVLW       92
	MOVWF       R13, 0
L_load_data142:
	DECFSZ      R13, 1, 1
	BRA         L_load_data142
	DECFSZ      R12, 1, 1
	BRA         L_load_data142
	DECFSZ      R11, 1, 1
	BRA         L_load_data142
	NOP
;EEPROM_Data.c,678 :: 		Pay_Value = EEPORM_Read_Float(Pay_Value_Store_addr);
	MOVLW       67
	MOVWF       FARG_EEPORM_Read_Float_Addr+0 
	MOVLW       0
	MOVWF       FARG_EEPORM_Read_Float_Addr+1 
	CALL        _EEPORM_Read_Float+0, 0
	MOVF        R0, 0 
	MOVWF       _Pay_Value+0 
	MOVF        R1, 0 
	MOVWF       _Pay_Value+1 
	MOVF        R2, 0 
	MOVWF       _Pay_Value+2 
	MOVF        R3, 0 
	MOVWF       _Pay_Value+3 
;EEPROM_Data.c,679 :: 		delay_ms(30);
	MOVLW       3
	MOVWF       R11, 0
	MOVLW       112
	MOVWF       R12, 0
	MOVLW       92
	MOVWF       R13, 0
L_load_data143:
	DECFSZ      R13, 1, 1
	BRA         L_load_data143
	DECFSZ      R12, 1, 1
	BRA         L_load_data143
	DECFSZ      R11, 1, 1
	BRA         L_load_data143
	NOP
;EEPROM_Data.c,681 :: 		Loading_Fill(100);
	MOVLW       100
	MOVWF       FARG_Loading_Fill_percent+0 
	CALL        _Loading_Fill+0, 0
;EEPROM_Data.c,709 :: 		}
L_end_load_data:
	RETURN      0
; end of _load_data

_load_Picks4inch:

;EEPROM_Data.c,710 :: 		void load_Picks4inch(void)
;EEPROM_Data.c,712 :: 		Picks4inchA = EEPROM_Read(Picks4inchA_addr);
	MOVLW       16
	MOVWF       FARG_Eeprom_Read_address+0 
	MOVLW       0
	MOVWF       FARG_Eeprom_Read_address+1 
	CALL        _Eeprom_Read+0, 0
	MOVF        R0, 0 
	MOVWF       _Picks4inchA+0 
	MOVLW       0
	MOVWF       _Picks4inchA+1 
;EEPROM_Data.c,713 :: 		delay_ms(5);                                      //1
	MOVLW       104
	MOVWF       R12, 0
	MOVLW       228
	MOVWF       R13, 0
L_load_Picks4inch144:
	DECFSZ      R13, 1, 1
	BRA         L_load_Picks4inch144
	DECFSZ      R12, 1, 1
	BRA         L_load_Picks4inch144
	NOP
;EEPROM_Data.c,714 :: 		Picks4inchB = EEPROM_Read(Picks4inchB_addr);
	MOVLW       17
	MOVWF       FARG_Eeprom_Read_address+0 
	MOVLW       0
	MOVWF       FARG_Eeprom_Read_address+1 
	CALL        _Eeprom_Read+0, 0
	MOVF        R0, 0 
	MOVWF       _Picks4inchB+0 
	MOVLW       0
	MOVWF       _Picks4inchB+1 
;EEPROM_Data.c,715 :: 		delay_ms(5);                                      //2
	MOVLW       104
	MOVWF       R12, 0
	MOVLW       228
	MOVWF       R13, 0
L_load_Picks4inch145:
	DECFSZ      R13, 1, 1
	BRA         L_load_Picks4inch145
	DECFSZ      R12, 1, 1
	BRA         L_load_Picks4inch145
	NOP
;EEPROM_Data.c,716 :: 		Picks4inchC = EEPROM_Read(Picks4inchC_addr);
	MOVLW       18
	MOVWF       FARG_Eeprom_Read_address+0 
	MOVLW       0
	MOVWF       FARG_Eeprom_Read_address+1 
	CALL        _Eeprom_Read+0, 0
	MOVF        R0, 0 
	MOVWF       _Picks4inchC+0 
	MOVLW       0
	MOVWF       _Picks4inchC+1 
;EEPROM_Data.c,717 :: 		delay_ms(5);                                      //3
	MOVLW       104
	MOVWF       R12, 0
	MOVLW       228
	MOVWF       R13, 0
L_load_Picks4inch146:
	DECFSZ      R13, 1, 1
	BRA         L_load_Picks4inch146
	DECFSZ      R12, 1, 1
	BRA         L_load_Picks4inch146
	NOP
;EEPROM_Data.c,718 :: 		Picks4inchD = EEPROM_Read(Picks4inchD_addr);
	MOVLW       19
	MOVWF       FARG_Eeprom_Read_address+0 
	MOVLW       0
	MOVWF       FARG_Eeprom_Read_address+1 
	CALL        _Eeprom_Read+0, 0
	MOVF        R0, 0 
	MOVWF       _Picks4inchD+0 
	MOVLW       0
	MOVWF       _Picks4inchD+1 
;EEPROM_Data.c,719 :: 		delay_ms(5);                                      //4
	MOVLW       104
	MOVWF       R12, 0
	MOVLW       228
	MOVWF       R13, 0
L_load_Picks4inch147:
	DECFSZ      R13, 1, 1
	BRA         L_load_Picks4inch147
	DECFSZ      R12, 1, 1
	BRA         L_load_Picks4inch147
	NOP
;EEPROM_Data.c,720 :: 		Picks4inchE = EEPROM_Read(Picks4inchE_addr);
	MOVLW       20
	MOVWF       FARG_Eeprom_Read_address+0 
	MOVLW       0
	MOVWF       FARG_Eeprom_Read_address+1 
	CALL        _Eeprom_Read+0, 0
	MOVF        R0, 0 
	MOVWF       _Picks4inchE+0 
	MOVLW       0
	MOVWF       _Picks4inchE+1 
;EEPROM_Data.c,721 :: 		delay_ms(5);                                      //5
	MOVLW       104
	MOVWF       R12, 0
	MOVLW       228
	MOVWF       R13, 0
L_load_Picks4inch148:
	DECFSZ      R13, 1, 1
	BRA         L_load_Picks4inch148
	DECFSZ      R12, 1, 1
	BRA         L_load_Picks4inch148
	NOP
;EEPROM_Data.c,722 :: 		Picks4inchF = EEPROM_Read(Picks4inchF_addr);
	MOVLW       21
	MOVWF       FARG_Eeprom_Read_address+0 
	MOVLW       0
	MOVWF       FARG_Eeprom_Read_address+1 
	CALL        _Eeprom_Read+0, 0
	MOVF        R0, 0 
	MOVWF       _Picks4inchF+0 
	MOVLW       0
	MOVWF       _Picks4inchF+1 
;EEPROM_Data.c,723 :: 		delay_ms(5);                                      //6
	MOVLW       104
	MOVWF       R12, 0
	MOVLW       228
	MOVWF       R13, 0
L_load_Picks4inch149:
	DECFSZ      R13, 1, 1
	BRA         L_load_Picks4inch149
	DECFSZ      R12, 1, 1
	BRA         L_load_Picks4inch149
	NOP
;EEPROM_Data.c,724 :: 		Picks4inchG = EEPROM_Read(Picks4inchG_addr);
	MOVLW       22
	MOVWF       FARG_Eeprom_Read_address+0 
	MOVLW       0
	MOVWF       FARG_Eeprom_Read_address+1 
	CALL        _Eeprom_Read+0, 0
	MOVF        R0, 0 
	MOVWF       _Picks4inchG+0 
	MOVLW       0
	MOVWF       _Picks4inchG+1 
;EEPROM_Data.c,725 :: 		delay_ms(5);                                      //7
	MOVLW       104
	MOVWF       R12, 0
	MOVLW       228
	MOVWF       R13, 0
L_load_Picks4inch150:
	DECFSZ      R13, 1, 1
	BRA         L_load_Picks4inch150
	DECFSZ      R12, 1, 1
	BRA         L_load_Picks4inch150
	NOP
;EEPROM_Data.c,726 :: 		Picks4inchH = EEPROM_Read(Picks4inchH_addr);
	MOVLW       23
	MOVWF       FARG_Eeprom_Read_address+0 
	MOVLW       0
	MOVWF       FARG_Eeprom_Read_address+1 
	CALL        _Eeprom_Read+0, 0
	MOVF        R0, 0 
	MOVWF       _Picks4inchH+0 
	MOVLW       0
	MOVWF       _Picks4inchH+1 
;EEPROM_Data.c,727 :: 		delay_ms(5);                                      //8
	MOVLW       104
	MOVWF       R12, 0
	MOVLW       228
	MOVWF       R13, 0
L_load_Picks4inch151:
	DECFSZ      R13, 1, 1
	BRA         L_load_Picks4inch151
	DECFSZ      R12, 1, 1
	BRA         L_load_Picks4inch151
	NOP
;EEPROM_Data.c,728 :: 		Picks4inchI = EEPROM_Read(Picks4inchI_addr);
	MOVLW       24
	MOVWF       FARG_Eeprom_Read_address+0 
	MOVLW       0
	MOVWF       FARG_Eeprom_Read_address+1 
	CALL        _Eeprom_Read+0, 0
	MOVF        R0, 0 
	MOVWF       _Picks4inchI+0 
	MOVLW       0
	MOVWF       _Picks4inchI+1 
;EEPROM_Data.c,729 :: 		delay_ms(5);                                      //9
	MOVLW       104
	MOVWF       R12, 0
	MOVLW       228
	MOVWF       R13, 0
L_load_Picks4inch152:
	DECFSZ      R13, 1, 1
	BRA         L_load_Picks4inch152
	DECFSZ      R12, 1, 1
	BRA         L_load_Picks4inch152
	NOP
;EEPROM_Data.c,730 :: 		Picks4inchJ = EEPROM_Read(Picks4inchJ_addr);
	MOVLW       25
	MOVWF       FARG_Eeprom_Read_address+0 
	MOVLW       0
	MOVWF       FARG_Eeprom_Read_address+1 
	CALL        _Eeprom_Read+0, 0
	MOVF        R0, 0 
	MOVWF       _Picks4inchJ+0 
	MOVLW       0
	MOVWF       _Picks4inchJ+1 
;EEPROM_Data.c,731 :: 		delay_ms(5);                                      //10
	MOVLW       104
	MOVWF       R12, 0
	MOVLW       228
	MOVWF       R13, 0
L_load_Picks4inch153:
	DECFSZ      R13, 1, 1
	BRA         L_load_Picks4inch153
	DECFSZ      R12, 1, 1
	BRA         L_load_Picks4inch153
	NOP
;EEPROM_Data.c,732 :: 		Picks4inchK = EEPROM_Read(Picks4inchK_addr);
	MOVLW       26
	MOVWF       FARG_Eeprom_Read_address+0 
	MOVLW       0
	MOVWF       FARG_Eeprom_Read_address+1 
	CALL        _Eeprom_Read+0, 0
	MOVF        R0, 0 
	MOVWF       _Picks4inchK+0 
	MOVLW       0
	MOVWF       _Picks4inchK+1 
;EEPROM_Data.c,733 :: 		delay_ms(5);                                      //11
	MOVLW       104
	MOVWF       R12, 0
	MOVLW       228
	MOVWF       R13, 0
L_load_Picks4inch154:
	DECFSZ      R13, 1, 1
	BRA         L_load_Picks4inch154
	DECFSZ      R12, 1, 1
	BRA         L_load_Picks4inch154
	NOP
;EEPROM_Data.c,734 :: 		Picks4inchL = EEPROM_Read(Picks4inchL_addr);
	MOVLW       27
	MOVWF       FARG_Eeprom_Read_address+0 
	MOVLW       0
	MOVWF       FARG_Eeprom_Read_address+1 
	CALL        _Eeprom_Read+0, 0
	MOVF        R0, 0 
	MOVWF       _Picks4inchL+0 
	MOVLW       0
	MOVWF       _Picks4inchL+1 
;EEPROM_Data.c,735 :: 		delay_ms(5);                                      //12
	MOVLW       104
	MOVWF       R12, 0
	MOVLW       228
	MOVWF       R13, 0
L_load_Picks4inch155:
	DECFSZ      R13, 1, 1
	BRA         L_load_Picks4inch155
	DECFSZ      R12, 1, 1
	BRA         L_load_Picks4inch155
	NOP
;EEPROM_Data.c,736 :: 		Picks4inchM = EEPROM_Read(Picks4inchM_addr);
	MOVLW       28
	MOVWF       FARG_Eeprom_Read_address+0 
	MOVLW       0
	MOVWF       FARG_Eeprom_Read_address+1 
	CALL        _Eeprom_Read+0, 0
	MOVF        R0, 0 
	MOVWF       _Picks4inchM+0 
	MOVLW       0
	MOVWF       _Picks4inchM+1 
;EEPROM_Data.c,737 :: 		delay_ms(5);                                      //13
	MOVLW       104
	MOVWF       R12, 0
	MOVLW       228
	MOVWF       R13, 0
L_load_Picks4inch156:
	DECFSZ      R13, 1, 1
	BRA         L_load_Picks4inch156
	DECFSZ      R12, 1, 1
	BRA         L_load_Picks4inch156
	NOP
;EEPROM_Data.c,738 :: 		Picks4inchN = EEPROM_Read(Picks4inchN_addr);
	MOVLW       29
	MOVWF       FARG_Eeprom_Read_address+0 
	MOVLW       0
	MOVWF       FARG_Eeprom_Read_address+1 
	CALL        _Eeprom_Read+0, 0
	MOVF        R0, 0 
	MOVWF       _Picks4inchN+0 
	MOVLW       0
	MOVWF       _Picks4inchN+1 
;EEPROM_Data.c,739 :: 		delay_ms(5);                                      //14
	MOVLW       104
	MOVWF       R12, 0
	MOVLW       228
	MOVWF       R13, 0
L_load_Picks4inch157:
	DECFSZ      R13, 1, 1
	BRA         L_load_Picks4inch157
	DECFSZ      R12, 1, 1
	BRA         L_load_Picks4inch157
	NOP
;EEPROM_Data.c,740 :: 		Picks4inchO = EEPROM_Read(Picks4inchO_addr);
	MOVLW       30
	MOVWF       FARG_Eeprom_Read_address+0 
	MOVLW       0
	MOVWF       FARG_Eeprom_Read_address+1 
	CALL        _Eeprom_Read+0, 0
	MOVF        R0, 0 
	MOVWF       _Picks4inchO+0 
	MOVLW       0
	MOVWF       _Picks4inchO+1 
;EEPROM_Data.c,741 :: 		delay_ms(5);                                      //15
	MOVLW       104
	MOVWF       R12, 0
	MOVLW       228
	MOVWF       R13, 0
L_load_Picks4inch158:
	DECFSZ      R13, 1, 1
	BRA         L_load_Picks4inch158
	DECFSZ      R12, 1, 1
	BRA         L_load_Picks4inch158
	NOP
;EEPROM_Data.c,742 :: 		Picks4inchP = EEPROM_Read(Picks4inchP_addr);
	MOVLW       31
	MOVWF       FARG_Eeprom_Read_address+0 
	MOVLW       0
	MOVWF       FARG_Eeprom_Read_address+1 
	CALL        _Eeprom_Read+0, 0
	MOVF        R0, 0 
	MOVWF       _Picks4inchP+0 
	MOVLW       0
	MOVWF       _Picks4inchP+1 
;EEPROM_Data.c,743 :: 		delay_ms(5);                                      //16
	MOVLW       104
	MOVWF       R12, 0
	MOVLW       228
	MOVWF       R13, 0
L_load_Picks4inch159:
	DECFSZ      R13, 1, 1
	BRA         L_load_Picks4inch159
	DECFSZ      R12, 1, 1
	BRA         L_load_Picks4inch159
	NOP
;EEPROM_Data.c,745 :: 		T6963C_PanelFill(0);
	CLRF        FARG_T6963C_fill_v+0 
	CLRF        FARG_T6963C_fill_start+0 
	CLRF        FARG_T6963C_fill_start+1 
	MOVF        _T6963C_txtMemSize+0, 0 
	ADDWF       _T6963C_grMemSize+0, 0 
	MOVWF       FARG_T6963C_fill_len+0 
	MOVF        _T6963C_txtMemSize+1, 0 
	ADDWFC      _T6963C_grMemSize+1, 0 
	MOVWF       FARG_T6963C_fill_len+1 
	CALL        _T6963C_fill+0, 0
;EEPROM_Data.c,746 :: 		T6963C_Write_Text_Adv_ROM("UPDATING PICKS",70,48);
	MOVLW       ?lstr_17_EEPROM_Data+0
	MOVWF       FARG_T6963C_Write_Text_Adv_ROM_text+0 
	MOVLW       hi_addr(?lstr_17_EEPROM_Data+0)
	MOVWF       FARG_T6963C_Write_Text_Adv_ROM_text+1 
	MOVLW       higher_addr(?lstr_17_EEPROM_Data+0)
	MOVWF       FARG_T6963C_Write_Text_Adv_ROM_text+2 
	MOVLW       70
	MOVWF       FARG_T6963C_Write_Text_Adv_ROM_x+0 
	MOVLW       48
	MOVWF       FARG_T6963C_Write_Text_Adv_ROM_y+0 
	CALL        _T6963C_Write_Text_Adv_ROM+0, 0
;EEPROM_Data.c,747 :: 		T6963C_Write_Text_Adv_ROM("FOR INCH",86,64);
	MOVLW       ?lstr_18_EEPROM_Data+0
	MOVWF       FARG_T6963C_Write_Text_Adv_ROM_text+0 
	MOVLW       hi_addr(?lstr_18_EEPROM_Data+0)
	MOVWF       FARG_T6963C_Write_Text_Adv_ROM_text+1 
	MOVLW       higher_addr(?lstr_18_EEPROM_Data+0)
	MOVWF       FARG_T6963C_Write_Text_Adv_ROM_text+2 
	MOVLW       86
	MOVWF       FARG_T6963C_Write_Text_Adv_ROM_x+0 
	MOVLW       64
	MOVWF       FARG_T6963C_Write_Text_Adv_ROM_y+0 
	CALL        _T6963C_Write_Text_Adv_ROM+0, 0
;EEPROM_Data.c,748 :: 		delay_ms(2500);
	MOVLW       203
	MOVWF       R11, 0
	MOVLW       236
	MOVWF       R12, 0
	MOVLW       132
	MOVWF       R13, 0
L_load_Picks4inch160:
	DECFSZ      R13, 1, 1
	BRA         L_load_Picks4inch160
	DECFSZ      R12, 1, 1
	BRA         L_load_Picks4inch160
	DECFSZ      R11, 1, 1
	BRA         L_load_Picks4inch160
	NOP
;EEPROM_Data.c,749 :: 		}
L_end_load_Picks4inch:
	RETURN      0
; end of _load_Picks4inch

_load_inch:

;EEPROM_Data.c,750 :: 		void load_inch(void)
;EEPROM_Data.c,752 :: 		inchA     = EEPROM_Read_int(InchA_addr_Temp);   //1
	MOVLW       32
	MOVWF       FARG_EEPROM_Read_int_Addr+0 
	MOVLW       0
	MOVWF       FARG_EEPROM_Read_int_Addr+1 
	CALL        _EEPROM_Read_int+0, 0
	CALL        _word2double+0, 0
	MOVF        R0, 0 
	MOVWF       _inchA+0 
	MOVF        R1, 0 
	MOVWF       _inchA+1 
	MOVF        R2, 0 
	MOVWF       _inchA+2 
	MOVF        R3, 0 
	MOVWF       _inchA+3 
;EEPROM_Data.c,753 :: 		delay_ms(5);
	MOVLW       104
	MOVWF       R12, 0
	MOVLW       228
	MOVWF       R13, 0
L_load_inch161:
	DECFSZ      R13, 1, 1
	BRA         L_load_inch161
	DECFSZ      R12, 1, 1
	BRA         L_load_inch161
	NOP
;EEPROM_Data.c,754 :: 		inchB     = EEPROM_Read_int(InchB_addr_Temp);   //2
	MOVLW       34
	MOVWF       FARG_EEPROM_Read_int_Addr+0 
	MOVLW       0
	MOVWF       FARG_EEPROM_Read_int_Addr+1 
	CALL        _EEPROM_Read_int+0, 0
	CALL        _word2double+0, 0
	MOVF        R0, 0 
	MOVWF       _inchB+0 
	MOVF        R1, 0 
	MOVWF       _inchB+1 
	MOVF        R2, 0 
	MOVWF       _inchB+2 
	MOVF        R3, 0 
	MOVWF       _inchB+3 
;EEPROM_Data.c,755 :: 		delay_ms(5);
	MOVLW       104
	MOVWF       R12, 0
	MOVLW       228
	MOVWF       R13, 0
L_load_inch162:
	DECFSZ      R13, 1, 1
	BRA         L_load_inch162
	DECFSZ      R12, 1, 1
	BRA         L_load_inch162
	NOP
;EEPROM_Data.c,756 :: 		inchC     = EEPROM_Read_int(InchC_addr_Temp);   //3
	MOVLW       36
	MOVWF       FARG_EEPROM_Read_int_Addr+0 
	MOVLW       0
	MOVWF       FARG_EEPROM_Read_int_Addr+1 
	CALL        _EEPROM_Read_int+0, 0
	CALL        _word2double+0, 0
	MOVF        R0, 0 
	MOVWF       _inchC+0 
	MOVF        R1, 0 
	MOVWF       _inchC+1 
	MOVF        R2, 0 
	MOVWF       _inchC+2 
	MOVF        R3, 0 
	MOVWF       _inchC+3 
;EEPROM_Data.c,757 :: 		delay_ms(5);
	MOVLW       104
	MOVWF       R12, 0
	MOVLW       228
	MOVWF       R13, 0
L_load_inch163:
	DECFSZ      R13, 1, 1
	BRA         L_load_inch163
	DECFSZ      R12, 1, 1
	BRA         L_load_inch163
	NOP
;EEPROM_Data.c,758 :: 		inchD     = EEPROM_Read_int(InchD_addr_Temp);   //4
	MOVLW       38
	MOVWF       FARG_EEPROM_Read_int_Addr+0 
	MOVLW       0
	MOVWF       FARG_EEPROM_Read_int_Addr+1 
	CALL        _EEPROM_Read_int+0, 0
	CALL        _word2double+0, 0
	MOVF        R0, 0 
	MOVWF       _inchD+0 
	MOVF        R1, 0 
	MOVWF       _inchD+1 
	MOVF        R2, 0 
	MOVWF       _inchD+2 
	MOVF        R3, 0 
	MOVWF       _inchD+3 
;EEPROM_Data.c,759 :: 		delay_ms(5);
	MOVLW       104
	MOVWF       R12, 0
	MOVLW       228
	MOVWF       R13, 0
L_load_inch164:
	DECFSZ      R13, 1, 1
	BRA         L_load_inch164
	DECFSZ      R12, 1, 1
	BRA         L_load_inch164
	NOP
;EEPROM_Data.c,760 :: 		inchE     = EEPROM_Read_int(InchE_addr_Temp);   //5
	MOVLW       40
	MOVWF       FARG_EEPROM_Read_int_Addr+0 
	MOVLW       0
	MOVWF       FARG_EEPROM_Read_int_Addr+1 
	CALL        _EEPROM_Read_int+0, 0
	CALL        _word2double+0, 0
	MOVF        R0, 0 
	MOVWF       _inchE+0 
	MOVF        R1, 0 
	MOVWF       _inchE+1 
	MOVF        R2, 0 
	MOVWF       _inchE+2 
	MOVF        R3, 0 
	MOVWF       _inchE+3 
;EEPROM_Data.c,761 :: 		delay_ms(5);
	MOVLW       104
	MOVWF       R12, 0
	MOVLW       228
	MOVWF       R13, 0
L_load_inch165:
	DECFSZ      R13, 1, 1
	BRA         L_load_inch165
	DECFSZ      R12, 1, 1
	BRA         L_load_inch165
	NOP
;EEPROM_Data.c,762 :: 		inchF     = EEPROM_Read_int(InchF_addr_Temp);   //6
	MOVLW       42
	MOVWF       FARG_EEPROM_Read_int_Addr+0 
	MOVLW       0
	MOVWF       FARG_EEPROM_Read_int_Addr+1 
	CALL        _EEPROM_Read_int+0, 0
	CALL        _word2double+0, 0
	MOVF        R0, 0 
	MOVWF       _inchF+0 
	MOVF        R1, 0 
	MOVWF       _inchF+1 
	MOVF        R2, 0 
	MOVWF       _inchF+2 
	MOVF        R3, 0 
	MOVWF       _inchF+3 
;EEPROM_Data.c,763 :: 		delay_ms(5);
	MOVLW       104
	MOVWF       R12, 0
	MOVLW       228
	MOVWF       R13, 0
L_load_inch166:
	DECFSZ      R13, 1, 1
	BRA         L_load_inch166
	DECFSZ      R12, 1, 1
	BRA         L_load_inch166
	NOP
;EEPROM_Data.c,764 :: 		inchG     = EEPROM_Read_int(InchG_addr_Temp);   //7
	MOVLW       44
	MOVWF       FARG_EEPROM_Read_int_Addr+0 
	MOVLW       0
	MOVWF       FARG_EEPROM_Read_int_Addr+1 
	CALL        _EEPROM_Read_int+0, 0
	CALL        _word2double+0, 0
	MOVF        R0, 0 
	MOVWF       _inchG+0 
	MOVF        R1, 0 
	MOVWF       _inchG+1 
	MOVF        R2, 0 
	MOVWF       _inchG+2 
	MOVF        R3, 0 
	MOVWF       _inchG+3 
;EEPROM_Data.c,765 :: 		delay_ms(5);
	MOVLW       104
	MOVWF       R12, 0
	MOVLW       228
	MOVWF       R13, 0
L_load_inch167:
	DECFSZ      R13, 1, 1
	BRA         L_load_inch167
	DECFSZ      R12, 1, 1
	BRA         L_load_inch167
	NOP
;EEPROM_Data.c,766 :: 		inchH     = EEPROM_Read_int(InchH_addr_Temp);   //8
	MOVLW       46
	MOVWF       FARG_EEPROM_Read_int_Addr+0 
	MOVLW       0
	MOVWF       FARG_EEPROM_Read_int_Addr+1 
	CALL        _EEPROM_Read_int+0, 0
	CALL        _word2double+0, 0
	MOVF        R0, 0 
	MOVWF       _inchH+0 
	MOVF        R1, 0 
	MOVWF       _inchH+1 
	MOVF        R2, 0 
	MOVWF       _inchH+2 
	MOVF        R3, 0 
	MOVWF       _inchH+3 
;EEPROM_Data.c,767 :: 		delay_ms(5);
	MOVLW       104
	MOVWF       R12, 0
	MOVLW       228
	MOVWF       R13, 0
L_load_inch168:
	DECFSZ      R13, 1, 1
	BRA         L_load_inch168
	DECFSZ      R12, 1, 1
	BRA         L_load_inch168
	NOP
;EEPROM_Data.c,768 :: 		inchI     = EEPROM_Read_int(InchI_addr_Temp);   //9
	MOVLW       48
	MOVWF       FARG_EEPROM_Read_int_Addr+0 
	MOVLW       0
	MOVWF       FARG_EEPROM_Read_int_Addr+1 
	CALL        _EEPROM_Read_int+0, 0
	CALL        _word2double+0, 0
	MOVF        R0, 0 
	MOVWF       _inchI+0 
	MOVF        R1, 0 
	MOVWF       _inchI+1 
	MOVF        R2, 0 
	MOVWF       _inchI+2 
	MOVF        R3, 0 
	MOVWF       _inchI+3 
;EEPROM_Data.c,769 :: 		delay_ms(5);
	MOVLW       104
	MOVWF       R12, 0
	MOVLW       228
	MOVWF       R13, 0
L_load_inch169:
	DECFSZ      R13, 1, 1
	BRA         L_load_inch169
	DECFSZ      R12, 1, 1
	BRA         L_load_inch169
	NOP
;EEPROM_Data.c,770 :: 		inchJ     = EEPROM_Read_int(InchJ_addr_Temp);   //10
	MOVLW       50
	MOVWF       FARG_EEPROM_Read_int_Addr+0 
	MOVLW       0
	MOVWF       FARG_EEPROM_Read_int_Addr+1 
	CALL        _EEPROM_Read_int+0, 0
	CALL        _word2double+0, 0
	MOVF        R0, 0 
	MOVWF       _inchJ+0 
	MOVF        R1, 0 
	MOVWF       _inchJ+1 
	MOVF        R2, 0 
	MOVWF       _inchJ+2 
	MOVF        R3, 0 
	MOVWF       _inchJ+3 
;EEPROM_Data.c,771 :: 		delay_ms(5);
	MOVLW       104
	MOVWF       R12, 0
	MOVLW       228
	MOVWF       R13, 0
L_load_inch170:
	DECFSZ      R13, 1, 1
	BRA         L_load_inch170
	DECFSZ      R12, 1, 1
	BRA         L_load_inch170
	NOP
;EEPROM_Data.c,772 :: 		inchK     = EEPROM_Read_int(InchK_addr_Temp);   //11
	MOVLW       52
	MOVWF       FARG_EEPROM_Read_int_Addr+0 
	MOVLW       0
	MOVWF       FARG_EEPROM_Read_int_Addr+1 
	CALL        _EEPROM_Read_int+0, 0
	CALL        _word2double+0, 0
	MOVF        R0, 0 
	MOVWF       _inchK+0 
	MOVF        R1, 0 
	MOVWF       _inchK+1 
	MOVF        R2, 0 
	MOVWF       _inchK+2 
	MOVF        R3, 0 
	MOVWF       _inchK+3 
;EEPROM_Data.c,773 :: 		delay_ms(5);
	MOVLW       104
	MOVWF       R12, 0
	MOVLW       228
	MOVWF       R13, 0
L_load_inch171:
	DECFSZ      R13, 1, 1
	BRA         L_load_inch171
	DECFSZ      R12, 1, 1
	BRA         L_load_inch171
	NOP
;EEPROM_Data.c,774 :: 		inchL     = EEPROM_Read_int(InchL_addr_Temp);   //12
	MOVLW       54
	MOVWF       FARG_EEPROM_Read_int_Addr+0 
	MOVLW       0
	MOVWF       FARG_EEPROM_Read_int_Addr+1 
	CALL        _EEPROM_Read_int+0, 0
	CALL        _word2double+0, 0
	MOVF        R0, 0 
	MOVWF       _inchL+0 
	MOVF        R1, 0 
	MOVWF       _inchL+1 
	MOVF        R2, 0 
	MOVWF       _inchL+2 
	MOVF        R3, 0 
	MOVWF       _inchL+3 
;EEPROM_Data.c,775 :: 		delay_ms(5);
	MOVLW       104
	MOVWF       R12, 0
	MOVLW       228
	MOVWF       R13, 0
L_load_inch172:
	DECFSZ      R13, 1, 1
	BRA         L_load_inch172
	DECFSZ      R12, 1, 1
	BRA         L_load_inch172
	NOP
;EEPROM_Data.c,776 :: 		inchM     = EEPROM_Read_int(InchM_addr_Temp);   //13
	MOVLW       56
	MOVWF       FARG_EEPROM_Read_int_Addr+0 
	MOVLW       0
	MOVWF       FARG_EEPROM_Read_int_Addr+1 
	CALL        _EEPROM_Read_int+0, 0
	CALL        _word2double+0, 0
	MOVF        R0, 0 
	MOVWF       _inchM+0 
	MOVF        R1, 0 
	MOVWF       _inchM+1 
	MOVF        R2, 0 
	MOVWF       _inchM+2 
	MOVF        R3, 0 
	MOVWF       _inchM+3 
;EEPROM_Data.c,777 :: 		delay_ms(5);
	MOVLW       104
	MOVWF       R12, 0
	MOVLW       228
	MOVWF       R13, 0
L_load_inch173:
	DECFSZ      R13, 1, 1
	BRA         L_load_inch173
	DECFSZ      R12, 1, 1
	BRA         L_load_inch173
	NOP
;EEPROM_Data.c,778 :: 		inchN     = EEPROM_Read_int(InchN_addr_Temp);   //14
	MOVLW       58
	MOVWF       FARG_EEPROM_Read_int_Addr+0 
	MOVLW       0
	MOVWF       FARG_EEPROM_Read_int_Addr+1 
	CALL        _EEPROM_Read_int+0, 0
	CALL        _word2double+0, 0
	MOVF        R0, 0 
	MOVWF       _inchN+0 
	MOVF        R1, 0 
	MOVWF       _inchN+1 
	MOVF        R2, 0 
	MOVWF       _inchN+2 
	MOVF        R3, 0 
	MOVWF       _inchN+3 
;EEPROM_Data.c,779 :: 		delay_ms(5);
	MOVLW       104
	MOVWF       R12, 0
	MOVLW       228
	MOVWF       R13, 0
L_load_inch174:
	DECFSZ      R13, 1, 1
	BRA         L_load_inch174
	DECFSZ      R12, 1, 1
	BRA         L_load_inch174
	NOP
;EEPROM_Data.c,780 :: 		inchO     = EEPROM_Read_int(InchO_addr_Temp);   //15
	MOVLW       60
	MOVWF       FARG_EEPROM_Read_int_Addr+0 
	MOVLW       0
	MOVWF       FARG_EEPROM_Read_int_Addr+1 
	CALL        _EEPROM_Read_int+0, 0
	CALL        _word2double+0, 0
	MOVF        R0, 0 
	MOVWF       _inchO+0 
	MOVF        R1, 0 
	MOVWF       _inchO+1 
	MOVF        R2, 0 
	MOVWF       _inchO+2 
	MOVF        R3, 0 
	MOVWF       _inchO+3 
;EEPROM_Data.c,781 :: 		delay_ms(5);
	MOVLW       104
	MOVWF       R12, 0
	MOVLW       228
	MOVWF       R13, 0
L_load_inch175:
	DECFSZ      R13, 1, 1
	BRA         L_load_inch175
	DECFSZ      R12, 1, 1
	BRA         L_load_inch175
	NOP
;EEPROM_Data.c,782 :: 		inchP     = EEPROM_Read_int(InchP_addr_Temp);   //16
	MOVLW       62
	MOVWF       FARG_EEPROM_Read_int_Addr+0 
	MOVLW       0
	MOVWF       FARG_EEPROM_Read_int_Addr+1 
	CALL        _EEPROM_Read_int+0, 0
	CALL        _word2double+0, 0
	MOVF        R0, 0 
	MOVWF       _inchP+0 
	MOVF        R1, 0 
	MOVWF       _inchP+1 
	MOVF        R2, 0 
	MOVWF       _inchP+2 
	MOVF        R3, 0 
	MOVWF       _inchP+3 
;EEPROM_Data.c,783 :: 		delay_ms(5);
	MOVLW       104
	MOVWF       R12, 0
	MOVLW       228
	MOVWF       R13, 0
L_load_inch176:
	DECFSZ      R13, 1, 1
	BRA         L_load_inch176
	DECFSZ      R12, 1, 1
	BRA         L_load_inch176
	NOP
;EEPROM_Data.c,785 :: 		T6963C_PanelFill(0);
	CLRF        FARG_T6963C_fill_v+0 
	CLRF        FARG_T6963C_fill_start+0 
	CLRF        FARG_T6963C_fill_start+1 
	MOVF        _T6963C_txtMemSize+0, 0 
	ADDWF       _T6963C_grMemSize+0, 0 
	MOVWF       FARG_T6963C_fill_len+0 
	MOVF        _T6963C_txtMemSize+1, 0 
	ADDWFC      _T6963C_grMemSize+1, 0 
	MOVWF       FARG_T6963C_fill_len+1 
	CALL        _T6963C_fill+0, 0
;EEPROM_Data.c,786 :: 		T6963C_Write_Text_Adv_ROM("UPDATING METER",80,48);
	MOVLW       ?lstr_19_EEPROM_Data+0
	MOVWF       FARG_T6963C_Write_Text_Adv_ROM_text+0 
	MOVLW       hi_addr(?lstr_19_EEPROM_Data+0)
	MOVWF       FARG_T6963C_Write_Text_Adv_ROM_text+1 
	MOVLW       higher_addr(?lstr_19_EEPROM_Data+0)
	MOVWF       FARG_T6963C_Write_Text_Adv_ROM_text+2 
	MOVLW       80
	MOVWF       FARG_T6963C_Write_Text_Adv_ROM_x+0 
	MOVLW       48
	MOVWF       FARG_T6963C_Write_Text_Adv_ROM_y+0 
	CALL        _T6963C_Write_Text_Adv_ROM+0, 0
;EEPROM_Data.c,787 :: 		T6963C_Write_Text_Adv_ROM("FOR LOOMS",96,64);
	MOVLW       ?lstr_20_EEPROM_Data+0
	MOVWF       FARG_T6963C_Write_Text_Adv_ROM_text+0 
	MOVLW       hi_addr(?lstr_20_EEPROM_Data+0)
	MOVWF       FARG_T6963C_Write_Text_Adv_ROM_text+1 
	MOVLW       higher_addr(?lstr_20_EEPROM_Data+0)
	MOVWF       FARG_T6963C_Write_Text_Adv_ROM_text+2 
	MOVLW       96
	MOVWF       FARG_T6963C_Write_Text_Adv_ROM_x+0 
	MOVLW       64
	MOVWF       FARG_T6963C_Write_Text_Adv_ROM_y+0 
	CALL        _T6963C_Write_Text_Adv_ROM+0, 0
;EEPROM_Data.c,788 :: 		delay_ms(2500);
	MOVLW       203
	MOVWF       R11, 0
	MOVLW       236
	MOVWF       R12, 0
	MOVLW       132
	MOVWF       R13, 0
L_load_inch177:
	DECFSZ      R13, 1, 1
	BRA         L_load_inch177
	DECFSZ      R12, 1, 1
	BRA         L_load_inch177
	DECFSZ      R11, 1, 1
	BRA         L_load_inch177
	NOP
;EEPROM_Data.c,789 :: 		}
L_end_load_inch:
	RETURN      0
; end of _load_inch

_load_Pulse_Pick:

;EEPROM_Data.c,790 :: 		void load_Pulse_Pick(void)
;EEPROM_Data.c,792 :: 		Pulse_PickA = EEPROM_Read(Pulse_PickA_addr); //1
	MOVLW       160
	MOVWF       FARG_Eeprom_Read_address+0 
	MOVLW       3
	MOVWF       FARG_Eeprom_Read_address+1 
	CALL        _Eeprom_Read+0, 0
	MOVF        R0, 0 
	MOVWF       _Pulse_PickA+0 
	MOVLW       0
	MOVWF       _Pulse_PickA+1 
;EEPROM_Data.c,793 :: 		delay_ms(5);
	MOVLW       104
	MOVWF       R12, 0
	MOVLW       228
	MOVWF       R13, 0
L_load_Pulse_Pick178:
	DECFSZ      R13, 1, 1
	BRA         L_load_Pulse_Pick178
	DECFSZ      R12, 1, 1
	BRA         L_load_Pulse_Pick178
	NOP
;EEPROM_Data.c,794 :: 		Pulse_PickB = EEPROM_Read(Pulse_PickB_addr); //2
	MOVLW       161
	MOVWF       FARG_Eeprom_Read_address+0 
	MOVLW       3
	MOVWF       FARG_Eeprom_Read_address+1 
	CALL        _Eeprom_Read+0, 0
	MOVF        R0, 0 
	MOVWF       _Pulse_PickB+0 
	MOVLW       0
	MOVWF       _Pulse_PickB+1 
;EEPROM_Data.c,795 :: 		delay_ms(5);
	MOVLW       104
	MOVWF       R12, 0
	MOVLW       228
	MOVWF       R13, 0
L_load_Pulse_Pick179:
	DECFSZ      R13, 1, 1
	BRA         L_load_Pulse_Pick179
	DECFSZ      R12, 1, 1
	BRA         L_load_Pulse_Pick179
	NOP
;EEPROM_Data.c,796 :: 		Pulse_PickC = EEPROM_Read(Pulse_PickC_addr); //3
	MOVLW       162
	MOVWF       FARG_Eeprom_Read_address+0 
	MOVLW       3
	MOVWF       FARG_Eeprom_Read_address+1 
	CALL        _Eeprom_Read+0, 0
	MOVF        R0, 0 
	MOVWF       _Pulse_PickC+0 
	MOVLW       0
	MOVWF       _Pulse_PickC+1 
;EEPROM_Data.c,797 :: 		delay_ms(5);
	MOVLW       104
	MOVWF       R12, 0
	MOVLW       228
	MOVWF       R13, 0
L_load_Pulse_Pick180:
	DECFSZ      R13, 1, 1
	BRA         L_load_Pulse_Pick180
	DECFSZ      R12, 1, 1
	BRA         L_load_Pulse_Pick180
	NOP
;EEPROM_Data.c,798 :: 		Pulse_PickD = EEPROM_Read(Pulse_PickD_addr); //4
	MOVLW       163
	MOVWF       FARG_Eeprom_Read_address+0 
	MOVLW       3
	MOVWF       FARG_Eeprom_Read_address+1 
	CALL        _Eeprom_Read+0, 0
	MOVF        R0, 0 
	MOVWF       _Pulse_PickD+0 
	MOVLW       0
	MOVWF       _Pulse_PickD+1 
;EEPROM_Data.c,799 :: 		delay_ms(5);
	MOVLW       104
	MOVWF       R12, 0
	MOVLW       228
	MOVWF       R13, 0
L_load_Pulse_Pick181:
	DECFSZ      R13, 1, 1
	BRA         L_load_Pulse_Pick181
	DECFSZ      R12, 1, 1
	BRA         L_load_Pulse_Pick181
	NOP
;EEPROM_Data.c,800 :: 		Pulse_PickE = EEPROM_Read(Pulse_PickE_addr); //5
	MOVLW       164
	MOVWF       FARG_Eeprom_Read_address+0 
	MOVLW       3
	MOVWF       FARG_Eeprom_Read_address+1 
	CALL        _Eeprom_Read+0, 0
	MOVF        R0, 0 
	MOVWF       _Pulse_PickE+0 
	MOVLW       0
	MOVWF       _Pulse_PickE+1 
;EEPROM_Data.c,801 :: 		delay_ms(5);
	MOVLW       104
	MOVWF       R12, 0
	MOVLW       228
	MOVWF       R13, 0
L_load_Pulse_Pick182:
	DECFSZ      R13, 1, 1
	BRA         L_load_Pulse_Pick182
	DECFSZ      R12, 1, 1
	BRA         L_load_Pulse_Pick182
	NOP
;EEPROM_Data.c,802 :: 		Pulse_PickF = EEPROM_Read(Pulse_PickF_addr); //6
	MOVLW       165
	MOVWF       FARG_Eeprom_Read_address+0 
	MOVLW       3
	MOVWF       FARG_Eeprom_Read_address+1 
	CALL        _Eeprom_Read+0, 0
	MOVF        R0, 0 
	MOVWF       _Pulse_PickF+0 
	MOVLW       0
	MOVWF       _Pulse_PickF+1 
;EEPROM_Data.c,803 :: 		delay_ms(5);
	MOVLW       104
	MOVWF       R12, 0
	MOVLW       228
	MOVWF       R13, 0
L_load_Pulse_Pick183:
	DECFSZ      R13, 1, 1
	BRA         L_load_Pulse_Pick183
	DECFSZ      R12, 1, 1
	BRA         L_load_Pulse_Pick183
	NOP
;EEPROM_Data.c,804 :: 		Pulse_PickG = EEPROM_Read(Pulse_PickG_addr); //7
	MOVLW       166
	MOVWF       FARG_Eeprom_Read_address+0 
	MOVLW       3
	MOVWF       FARG_Eeprom_Read_address+1 
	CALL        _Eeprom_Read+0, 0
	MOVF        R0, 0 
	MOVWF       _Pulse_PickG+0 
	MOVLW       0
	MOVWF       _Pulse_PickG+1 
;EEPROM_Data.c,805 :: 		delay_ms(5);
	MOVLW       104
	MOVWF       R12, 0
	MOVLW       228
	MOVWF       R13, 0
L_load_Pulse_Pick184:
	DECFSZ      R13, 1, 1
	BRA         L_load_Pulse_Pick184
	DECFSZ      R12, 1, 1
	BRA         L_load_Pulse_Pick184
	NOP
;EEPROM_Data.c,806 :: 		Pulse_PickH = EEPROM_Read(Pulse_PickH_addr); //8
	MOVLW       167
	MOVWF       FARG_Eeprom_Read_address+0 
	MOVLW       3
	MOVWF       FARG_Eeprom_Read_address+1 
	CALL        _Eeprom_Read+0, 0
	MOVF        R0, 0 
	MOVWF       _Pulse_PickH+0 
	MOVLW       0
	MOVWF       _Pulse_PickH+1 
;EEPROM_Data.c,807 :: 		delay_ms(5);
	MOVLW       104
	MOVWF       R12, 0
	MOVLW       228
	MOVWF       R13, 0
L_load_Pulse_Pick185:
	DECFSZ      R13, 1, 1
	BRA         L_load_Pulse_Pick185
	DECFSZ      R12, 1, 1
	BRA         L_load_Pulse_Pick185
	NOP
;EEPROM_Data.c,808 :: 		Pulse_PickI = EEPROM_Read(Pulse_PickI_addr); //9
	MOVLW       168
	MOVWF       FARG_Eeprom_Read_address+0 
	MOVLW       3
	MOVWF       FARG_Eeprom_Read_address+1 
	CALL        _Eeprom_Read+0, 0
	MOVF        R0, 0 
	MOVWF       _Pulse_PickI+0 
	MOVLW       0
	MOVWF       _Pulse_PickI+1 
;EEPROM_Data.c,809 :: 		delay_ms(5);
	MOVLW       104
	MOVWF       R12, 0
	MOVLW       228
	MOVWF       R13, 0
L_load_Pulse_Pick186:
	DECFSZ      R13, 1, 1
	BRA         L_load_Pulse_Pick186
	DECFSZ      R12, 1, 1
	BRA         L_load_Pulse_Pick186
	NOP
;EEPROM_Data.c,810 :: 		Pulse_PickJ = EEPROM_Read(Pulse_PickJ_addr); //10
	MOVLW       169
	MOVWF       FARG_Eeprom_Read_address+0 
	MOVLW       3
	MOVWF       FARG_Eeprom_Read_address+1 
	CALL        _Eeprom_Read+0, 0
	MOVF        R0, 0 
	MOVWF       _Pulse_PickJ+0 
	MOVLW       0
	MOVWF       _Pulse_PickJ+1 
;EEPROM_Data.c,811 :: 		delay_ms(5);
	MOVLW       104
	MOVWF       R12, 0
	MOVLW       228
	MOVWF       R13, 0
L_load_Pulse_Pick187:
	DECFSZ      R13, 1, 1
	BRA         L_load_Pulse_Pick187
	DECFSZ      R12, 1, 1
	BRA         L_load_Pulse_Pick187
	NOP
;EEPROM_Data.c,812 :: 		Pulse_PickK = EEPROM_Read(Pulse_PickK_addr); //11
	MOVLW       170
	MOVWF       FARG_Eeprom_Read_address+0 
	MOVLW       3
	MOVWF       FARG_Eeprom_Read_address+1 
	CALL        _Eeprom_Read+0, 0
	MOVF        R0, 0 
	MOVWF       _Pulse_PickK+0 
	MOVLW       0
	MOVWF       _Pulse_PickK+1 
;EEPROM_Data.c,813 :: 		delay_ms(5);
	MOVLW       104
	MOVWF       R12, 0
	MOVLW       228
	MOVWF       R13, 0
L_load_Pulse_Pick188:
	DECFSZ      R13, 1, 1
	BRA         L_load_Pulse_Pick188
	DECFSZ      R12, 1, 1
	BRA         L_load_Pulse_Pick188
	NOP
;EEPROM_Data.c,814 :: 		Pulse_PickL = EEPROM_Read(Pulse_PickL_addr); //12
	MOVLW       171
	MOVWF       FARG_Eeprom_Read_address+0 
	MOVLW       3
	MOVWF       FARG_Eeprom_Read_address+1 
	CALL        _Eeprom_Read+0, 0
	MOVF        R0, 0 
	MOVWF       _Pulse_PickL+0 
	MOVLW       0
	MOVWF       _Pulse_PickL+1 
;EEPROM_Data.c,815 :: 		delay_ms(5);
	MOVLW       104
	MOVWF       R12, 0
	MOVLW       228
	MOVWF       R13, 0
L_load_Pulse_Pick189:
	DECFSZ      R13, 1, 1
	BRA         L_load_Pulse_Pick189
	DECFSZ      R12, 1, 1
	BRA         L_load_Pulse_Pick189
	NOP
;EEPROM_Data.c,816 :: 		Pulse_PickM = EEPROM_Read(Pulse_PickM_addr); //13
	MOVLW       172
	MOVWF       FARG_Eeprom_Read_address+0 
	MOVLW       3
	MOVWF       FARG_Eeprom_Read_address+1 
	CALL        _Eeprom_Read+0, 0
	MOVF        R0, 0 
	MOVWF       _Pulse_PickM+0 
	MOVLW       0
	MOVWF       _Pulse_PickM+1 
;EEPROM_Data.c,817 :: 		delay_ms(5);
	MOVLW       104
	MOVWF       R12, 0
	MOVLW       228
	MOVWF       R13, 0
L_load_Pulse_Pick190:
	DECFSZ      R13, 1, 1
	BRA         L_load_Pulse_Pick190
	DECFSZ      R12, 1, 1
	BRA         L_load_Pulse_Pick190
	NOP
;EEPROM_Data.c,818 :: 		Pulse_PickN = EEPROM_Read(Pulse_PickN_addr); //14
	MOVLW       173
	MOVWF       FARG_Eeprom_Read_address+0 
	MOVLW       3
	MOVWF       FARG_Eeprom_Read_address+1 
	CALL        _Eeprom_Read+0, 0
	MOVF        R0, 0 
	MOVWF       _Pulse_PickN+0 
	MOVLW       0
	MOVWF       _Pulse_PickN+1 
;EEPROM_Data.c,819 :: 		delay_ms(5);
	MOVLW       104
	MOVWF       R12, 0
	MOVLW       228
	MOVWF       R13, 0
L_load_Pulse_Pick191:
	DECFSZ      R13, 1, 1
	BRA         L_load_Pulse_Pick191
	DECFSZ      R12, 1, 1
	BRA         L_load_Pulse_Pick191
	NOP
;EEPROM_Data.c,820 :: 		Pulse_PickO = EEPROM_Read(Pulse_PickO_addr); //15
	MOVLW       174
	MOVWF       FARG_Eeprom_Read_address+0 
	MOVLW       3
	MOVWF       FARG_Eeprom_Read_address+1 
	CALL        _Eeprom_Read+0, 0
	MOVF        R0, 0 
	MOVWF       _Pulse_PickO+0 
	MOVLW       0
	MOVWF       _Pulse_PickO+1 
;EEPROM_Data.c,821 :: 		delay_ms(5);
	MOVLW       104
	MOVWF       R12, 0
	MOVLW       228
	MOVWF       R13, 0
L_load_Pulse_Pick192:
	DECFSZ      R13, 1, 1
	BRA         L_load_Pulse_Pick192
	DECFSZ      R12, 1, 1
	BRA         L_load_Pulse_Pick192
	NOP
;EEPROM_Data.c,822 :: 		Pulse_PickP = EEPROM_Read(Pulse_PickP_addr); //16
	MOVLW       175
	MOVWF       FARG_Eeprom_Read_address+0 
	MOVLW       3
	MOVWF       FARG_Eeprom_Read_address+1 
	CALL        _Eeprom_Read+0, 0
	MOVF        R0, 0 
	MOVWF       _Pulse_PickP+0 
	MOVLW       0
	MOVWF       _Pulse_PickP+1 
;EEPROM_Data.c,823 :: 		delay_ms(5);
	MOVLW       104
	MOVWF       R12, 0
	MOVLW       228
	MOVWF       R13, 0
L_load_Pulse_Pick193:
	DECFSZ      R13, 1, 1
	BRA         L_load_Pulse_Pick193
	DECFSZ      R12, 1, 1
	BRA         L_load_Pulse_Pick193
	NOP
;EEPROM_Data.c,825 :: 		T6963C_PanelFill(0);
	CLRF        FARG_T6963C_fill_v+0 
	CLRF        FARG_T6963C_fill_start+0 
	CLRF        FARG_T6963C_fill_start+1 
	MOVF        _T6963C_txtMemSize+0, 0 
	ADDWF       _T6963C_grMemSize+0, 0 
	MOVWF       FARG_T6963C_fill_len+0 
	MOVF        _T6963C_txtMemSize+1, 0 
	ADDWFC      _T6963C_grMemSize+1, 0 
	MOVWF       FARG_T6963C_fill_len+1 
	CALL        _T6963C_fill+0, 0
;EEPROM_Data.c,826 :: 		T6963C_Write_Text_Adv_ROM("UPDATING PULSE",80,48);
	MOVLW       ?lstr_21_EEPROM_Data+0
	MOVWF       FARG_T6963C_Write_Text_Adv_ROM_text+0 
	MOVLW       hi_addr(?lstr_21_EEPROM_Data+0)
	MOVWF       FARG_T6963C_Write_Text_Adv_ROM_text+1 
	MOVLW       higher_addr(?lstr_21_EEPROM_Data+0)
	MOVWF       FARG_T6963C_Write_Text_Adv_ROM_text+2 
	MOVLW       80
	MOVWF       FARG_T6963C_Write_Text_Adv_ROM_x+0 
	MOVLW       48
	MOVWF       FARG_T6963C_Write_Text_Adv_ROM_y+0 
	CALL        _T6963C_Write_Text_Adv_ROM+0, 0
;EEPROM_Data.c,827 :: 		T6963C_Write_Text_Adv_ROM("FOR PICKS",96,64);
	MOVLW       ?lstr_22_EEPROM_Data+0
	MOVWF       FARG_T6963C_Write_Text_Adv_ROM_text+0 
	MOVLW       hi_addr(?lstr_22_EEPROM_Data+0)
	MOVWF       FARG_T6963C_Write_Text_Adv_ROM_text+1 
	MOVLW       higher_addr(?lstr_22_EEPROM_Data+0)
	MOVWF       FARG_T6963C_Write_Text_Adv_ROM_text+2 
	MOVLW       96
	MOVWF       FARG_T6963C_Write_Text_Adv_ROM_x+0 
	MOVLW       64
	MOVWF       FARG_T6963C_Write_Text_Adv_ROM_y+0 
	CALL        _T6963C_Write_Text_Adv_ROM+0, 0
;EEPROM_Data.c,828 :: 		delay_ms(2500);
	MOVLW       203
	MOVWF       R11, 0
	MOVLW       236
	MOVWF       R12, 0
	MOVLW       132
	MOVWF       R13, 0
L_load_Pulse_Pick194:
	DECFSZ      R13, 1, 1
	BRA         L_load_Pulse_Pick194
	DECFSZ      R12, 1, 1
	BRA         L_load_Pulse_Pick194
	DECFSZ      R11, 1, 1
	BRA         L_load_Pulse_Pick194
	NOP
;EEPROM_Data.c,829 :: 		}
L_end_load_Pulse_Pick:
	RETURN      0
; end of _load_Pulse_Pick

_Save_shiftwise:

;EEPROM_Data.c,831 :: 		void Save_shiftwise(void)
;EEPROM_Data.c,835 :: 		EEPROM_Write_int((InchA_addr_Temp),inchA);
	MOVLW       32
	MOVWF       FARG_EEPROM_Write_int_Addr+0 
	MOVLW       0
	MOVWF       FARG_EEPROM_Write_int_Addr+1 
	MOVF        _inchA+0, 0 
	MOVWF       R0 
	MOVF        _inchA+1, 0 
	MOVWF       R1 
	MOVF        _inchA+2, 0 
	MOVWF       R2 
	MOVF        _inchA+3, 0 
	MOVWF       R3 
	CALL        _double2word+0, 0
	MOVF        R0, 0 
	MOVWF       FARG_EEPROM_Write_int_Data+0 
	MOVF        R1, 0 
	MOVWF       FARG_EEPROM_Write_int_Data+1 
	CALL        _EEPROM_Write_int+0, 0
;EEPROM_Data.c,836 :: 		delay_ms(5);
	MOVLW       104
	MOVWF       R12, 0
	MOVLW       228
	MOVWF       R13, 0
L_Save_shiftwise195:
	DECFSZ      R13, 1, 1
	BRA         L_Save_shiftwise195
	DECFSZ      R12, 1, 1
	BRA         L_Save_shiftwise195
	NOP
;EEPROM_Data.c,837 :: 		EEPROM_Write_int((InchB_addr_Temp),inchB);
	MOVLW       34
	MOVWF       FARG_EEPROM_Write_int_Addr+0 
	MOVLW       0
	MOVWF       FARG_EEPROM_Write_int_Addr+1 
	MOVF        _inchB+0, 0 
	MOVWF       R0 
	MOVF        _inchB+1, 0 
	MOVWF       R1 
	MOVF        _inchB+2, 0 
	MOVWF       R2 
	MOVF        _inchB+3, 0 
	MOVWF       R3 
	CALL        _double2word+0, 0
	MOVF        R0, 0 
	MOVWF       FARG_EEPROM_Write_int_Data+0 
	MOVF        R1, 0 
	MOVWF       FARG_EEPROM_Write_int_Data+1 
	CALL        _EEPROM_Write_int+0, 0
;EEPROM_Data.c,838 :: 		delay_ms(5);
	MOVLW       104
	MOVWF       R12, 0
	MOVLW       228
	MOVWF       R13, 0
L_Save_shiftwise196:
	DECFSZ      R13, 1, 1
	BRA         L_Save_shiftwise196
	DECFSZ      R12, 1, 1
	BRA         L_Save_shiftwise196
	NOP
;EEPROM_Data.c,839 :: 		EEPROM_Write_int((InchC_addr_Temp),inchC);
	MOVLW       36
	MOVWF       FARG_EEPROM_Write_int_Addr+0 
	MOVLW       0
	MOVWF       FARG_EEPROM_Write_int_Addr+1 
	MOVF        _inchC+0, 0 
	MOVWF       R0 
	MOVF        _inchC+1, 0 
	MOVWF       R1 
	MOVF        _inchC+2, 0 
	MOVWF       R2 
	MOVF        _inchC+3, 0 
	MOVWF       R3 
	CALL        _double2word+0, 0
	MOVF        R0, 0 
	MOVWF       FARG_EEPROM_Write_int_Data+0 
	MOVF        R1, 0 
	MOVWF       FARG_EEPROM_Write_int_Data+1 
	CALL        _EEPROM_Write_int+0, 0
;EEPROM_Data.c,840 :: 		delay_ms(5);
	MOVLW       104
	MOVWF       R12, 0
	MOVLW       228
	MOVWF       R13, 0
L_Save_shiftwise197:
	DECFSZ      R13, 1, 1
	BRA         L_Save_shiftwise197
	DECFSZ      R12, 1, 1
	BRA         L_Save_shiftwise197
	NOP
;EEPROM_Data.c,841 :: 		EEPROM_Write_int((InchD_addr_Temp),inchD);
	MOVLW       38
	MOVWF       FARG_EEPROM_Write_int_Addr+0 
	MOVLW       0
	MOVWF       FARG_EEPROM_Write_int_Addr+1 
	MOVF        _inchD+0, 0 
	MOVWF       R0 
	MOVF        _inchD+1, 0 
	MOVWF       R1 
	MOVF        _inchD+2, 0 
	MOVWF       R2 
	MOVF        _inchD+3, 0 
	MOVWF       R3 
	CALL        _double2word+0, 0
	MOVF        R0, 0 
	MOVWF       FARG_EEPROM_Write_int_Data+0 
	MOVF        R1, 0 
	MOVWF       FARG_EEPROM_Write_int_Data+1 
	CALL        _EEPROM_Write_int+0, 0
;EEPROM_Data.c,842 :: 		delay_ms(5);
	MOVLW       104
	MOVWF       R12, 0
	MOVLW       228
	MOVWF       R13, 0
L_Save_shiftwise198:
	DECFSZ      R13, 1, 1
	BRA         L_Save_shiftwise198
	DECFSZ      R12, 1, 1
	BRA         L_Save_shiftwise198
	NOP
;EEPROM_Data.c,843 :: 		EEPROM_Write_int((InchE_addr_Temp),inchE);
	MOVLW       40
	MOVWF       FARG_EEPROM_Write_int_Addr+0 
	MOVLW       0
	MOVWF       FARG_EEPROM_Write_int_Addr+1 
	MOVF        _inchE+0, 0 
	MOVWF       R0 
	MOVF        _inchE+1, 0 
	MOVWF       R1 
	MOVF        _inchE+2, 0 
	MOVWF       R2 
	MOVF        _inchE+3, 0 
	MOVWF       R3 
	CALL        _double2word+0, 0
	MOVF        R0, 0 
	MOVWF       FARG_EEPROM_Write_int_Data+0 
	MOVF        R1, 0 
	MOVWF       FARG_EEPROM_Write_int_Data+1 
	CALL        _EEPROM_Write_int+0, 0
;EEPROM_Data.c,844 :: 		delay_ms(5);
	MOVLW       104
	MOVWF       R12, 0
	MOVLW       228
	MOVWF       R13, 0
L_Save_shiftwise199:
	DECFSZ      R13, 1, 1
	BRA         L_Save_shiftwise199
	DECFSZ      R12, 1, 1
	BRA         L_Save_shiftwise199
	NOP
;EEPROM_Data.c,845 :: 		EEPROM_Write_int((InchF_addr_Temp),inchF);
	MOVLW       42
	MOVWF       FARG_EEPROM_Write_int_Addr+0 
	MOVLW       0
	MOVWF       FARG_EEPROM_Write_int_Addr+1 
	MOVF        _inchF+0, 0 
	MOVWF       R0 
	MOVF        _inchF+1, 0 
	MOVWF       R1 
	MOVF        _inchF+2, 0 
	MOVWF       R2 
	MOVF        _inchF+3, 0 
	MOVWF       R3 
	CALL        _double2word+0, 0
	MOVF        R0, 0 
	MOVWF       FARG_EEPROM_Write_int_Data+0 
	MOVF        R1, 0 
	MOVWF       FARG_EEPROM_Write_int_Data+1 
	CALL        _EEPROM_Write_int+0, 0
;EEPROM_Data.c,846 :: 		delay_ms(5);
	MOVLW       104
	MOVWF       R12, 0
	MOVLW       228
	MOVWF       R13, 0
L_Save_shiftwise200:
	DECFSZ      R13, 1, 1
	BRA         L_Save_shiftwise200
	DECFSZ      R12, 1, 1
	BRA         L_Save_shiftwise200
	NOP
;EEPROM_Data.c,847 :: 		EEPROM_Write_int((InchG_addr_Temp),inchG);
	MOVLW       44
	MOVWF       FARG_EEPROM_Write_int_Addr+0 
	MOVLW       0
	MOVWF       FARG_EEPROM_Write_int_Addr+1 
	MOVF        _inchG+0, 0 
	MOVWF       R0 
	MOVF        _inchG+1, 0 
	MOVWF       R1 
	MOVF        _inchG+2, 0 
	MOVWF       R2 
	MOVF        _inchG+3, 0 
	MOVWF       R3 
	CALL        _double2word+0, 0
	MOVF        R0, 0 
	MOVWF       FARG_EEPROM_Write_int_Data+0 
	MOVF        R1, 0 
	MOVWF       FARG_EEPROM_Write_int_Data+1 
	CALL        _EEPROM_Write_int+0, 0
;EEPROM_Data.c,848 :: 		delay_ms(5);
	MOVLW       104
	MOVWF       R12, 0
	MOVLW       228
	MOVWF       R13, 0
L_Save_shiftwise201:
	DECFSZ      R13, 1, 1
	BRA         L_Save_shiftwise201
	DECFSZ      R12, 1, 1
	BRA         L_Save_shiftwise201
	NOP
;EEPROM_Data.c,849 :: 		EEPROM_Write_int((InchH_addr_Temp),inchH);
	MOVLW       46
	MOVWF       FARG_EEPROM_Write_int_Addr+0 
	MOVLW       0
	MOVWF       FARG_EEPROM_Write_int_Addr+1 
	MOVF        _inchH+0, 0 
	MOVWF       R0 
	MOVF        _inchH+1, 0 
	MOVWF       R1 
	MOVF        _inchH+2, 0 
	MOVWF       R2 
	MOVF        _inchH+3, 0 
	MOVWF       R3 
	CALL        _double2word+0, 0
	MOVF        R0, 0 
	MOVWF       FARG_EEPROM_Write_int_Data+0 
	MOVF        R1, 0 
	MOVWF       FARG_EEPROM_Write_int_Data+1 
	CALL        _EEPROM_Write_int+0, 0
;EEPROM_Data.c,850 :: 		delay_ms(5);
	MOVLW       104
	MOVWF       R12, 0
	MOVLW       228
	MOVWF       R13, 0
L_Save_shiftwise202:
	DECFSZ      R13, 1, 1
	BRA         L_Save_shiftwise202
	DECFSZ      R12, 1, 1
	BRA         L_Save_shiftwise202
	NOP
;EEPROM_Data.c,851 :: 		EEPROM_Write_int((InchI_addr_Temp),inchI);
	MOVLW       48
	MOVWF       FARG_EEPROM_Write_int_Addr+0 
	MOVLW       0
	MOVWF       FARG_EEPROM_Write_int_Addr+1 
	MOVF        _inchI+0, 0 
	MOVWF       R0 
	MOVF        _inchI+1, 0 
	MOVWF       R1 
	MOVF        _inchI+2, 0 
	MOVWF       R2 
	MOVF        _inchI+3, 0 
	MOVWF       R3 
	CALL        _double2word+0, 0
	MOVF        R0, 0 
	MOVWF       FARG_EEPROM_Write_int_Data+0 
	MOVF        R1, 0 
	MOVWF       FARG_EEPROM_Write_int_Data+1 
	CALL        _EEPROM_Write_int+0, 0
;EEPROM_Data.c,852 :: 		delay_ms(5);
	MOVLW       104
	MOVWF       R12, 0
	MOVLW       228
	MOVWF       R13, 0
L_Save_shiftwise203:
	DECFSZ      R13, 1, 1
	BRA         L_Save_shiftwise203
	DECFSZ      R12, 1, 1
	BRA         L_Save_shiftwise203
	NOP
;EEPROM_Data.c,853 :: 		EEPROM_Write_int((InchJ_addr_Temp),inchJ);
	MOVLW       50
	MOVWF       FARG_EEPROM_Write_int_Addr+0 
	MOVLW       0
	MOVWF       FARG_EEPROM_Write_int_Addr+1 
	MOVF        _inchJ+0, 0 
	MOVWF       R0 
	MOVF        _inchJ+1, 0 
	MOVWF       R1 
	MOVF        _inchJ+2, 0 
	MOVWF       R2 
	MOVF        _inchJ+3, 0 
	MOVWF       R3 
	CALL        _double2word+0, 0
	MOVF        R0, 0 
	MOVWF       FARG_EEPROM_Write_int_Data+0 
	MOVF        R1, 0 
	MOVWF       FARG_EEPROM_Write_int_Data+1 
	CALL        _EEPROM_Write_int+0, 0
;EEPROM_Data.c,854 :: 		delay_ms(5);
	MOVLW       104
	MOVWF       R12, 0
	MOVLW       228
	MOVWF       R13, 0
L_Save_shiftwise204:
	DECFSZ      R13, 1, 1
	BRA         L_Save_shiftwise204
	DECFSZ      R12, 1, 1
	BRA         L_Save_shiftwise204
	NOP
;EEPROM_Data.c,855 :: 		EEPROM_Write_int((InchK_addr_Temp),inchK);
	MOVLW       52
	MOVWF       FARG_EEPROM_Write_int_Addr+0 
	MOVLW       0
	MOVWF       FARG_EEPROM_Write_int_Addr+1 
	MOVF        _inchK+0, 0 
	MOVWF       R0 
	MOVF        _inchK+1, 0 
	MOVWF       R1 
	MOVF        _inchK+2, 0 
	MOVWF       R2 
	MOVF        _inchK+3, 0 
	MOVWF       R3 
	CALL        _double2word+0, 0
	MOVF        R0, 0 
	MOVWF       FARG_EEPROM_Write_int_Data+0 
	MOVF        R1, 0 
	MOVWF       FARG_EEPROM_Write_int_Data+1 
	CALL        _EEPROM_Write_int+0, 0
;EEPROM_Data.c,856 :: 		delay_ms(5);
	MOVLW       104
	MOVWF       R12, 0
	MOVLW       228
	MOVWF       R13, 0
L_Save_shiftwise205:
	DECFSZ      R13, 1, 1
	BRA         L_Save_shiftwise205
	DECFSZ      R12, 1, 1
	BRA         L_Save_shiftwise205
	NOP
;EEPROM_Data.c,857 :: 		EEPROM_Write_int((InchL_addr_Temp),inchL);
	MOVLW       54
	MOVWF       FARG_EEPROM_Write_int_Addr+0 
	MOVLW       0
	MOVWF       FARG_EEPROM_Write_int_Addr+1 
	MOVF        _inchL+0, 0 
	MOVWF       R0 
	MOVF        _inchL+1, 0 
	MOVWF       R1 
	MOVF        _inchL+2, 0 
	MOVWF       R2 
	MOVF        _inchL+3, 0 
	MOVWF       R3 
	CALL        _double2word+0, 0
	MOVF        R0, 0 
	MOVWF       FARG_EEPROM_Write_int_Data+0 
	MOVF        R1, 0 
	MOVWF       FARG_EEPROM_Write_int_Data+1 
	CALL        _EEPROM_Write_int+0, 0
;EEPROM_Data.c,858 :: 		delay_ms(5);
	MOVLW       104
	MOVWF       R12, 0
	MOVLW       228
	MOVWF       R13, 0
L_Save_shiftwise206:
	DECFSZ      R13, 1, 1
	BRA         L_Save_shiftwise206
	DECFSZ      R12, 1, 1
	BRA         L_Save_shiftwise206
	NOP
;EEPROM_Data.c,859 :: 		EEPROM_Write_int((InchM_addr_Temp),inchM);
	MOVLW       56
	MOVWF       FARG_EEPROM_Write_int_Addr+0 
	MOVLW       0
	MOVWF       FARG_EEPROM_Write_int_Addr+1 
	MOVF        _inchM+0, 0 
	MOVWF       R0 
	MOVF        _inchM+1, 0 
	MOVWF       R1 
	MOVF        _inchM+2, 0 
	MOVWF       R2 
	MOVF        _inchM+3, 0 
	MOVWF       R3 
	CALL        _double2word+0, 0
	MOVF        R0, 0 
	MOVWF       FARG_EEPROM_Write_int_Data+0 
	MOVF        R1, 0 
	MOVWF       FARG_EEPROM_Write_int_Data+1 
	CALL        _EEPROM_Write_int+0, 0
;EEPROM_Data.c,860 :: 		delay_ms(5);
	MOVLW       104
	MOVWF       R12, 0
	MOVLW       228
	MOVWF       R13, 0
L_Save_shiftwise207:
	DECFSZ      R13, 1, 1
	BRA         L_Save_shiftwise207
	DECFSZ      R12, 1, 1
	BRA         L_Save_shiftwise207
	NOP
;EEPROM_Data.c,861 :: 		EEPROM_Write_int((InchN_addr_Temp),inchN);
	MOVLW       58
	MOVWF       FARG_EEPROM_Write_int_Addr+0 
	MOVLW       0
	MOVWF       FARG_EEPROM_Write_int_Addr+1 
	MOVF        _inchN+0, 0 
	MOVWF       R0 
	MOVF        _inchN+1, 0 
	MOVWF       R1 
	MOVF        _inchN+2, 0 
	MOVWF       R2 
	MOVF        _inchN+3, 0 
	MOVWF       R3 
	CALL        _double2word+0, 0
	MOVF        R0, 0 
	MOVWF       FARG_EEPROM_Write_int_Data+0 
	MOVF        R1, 0 
	MOVWF       FARG_EEPROM_Write_int_Data+1 
	CALL        _EEPROM_Write_int+0, 0
;EEPROM_Data.c,862 :: 		delay_ms(5);
	MOVLW       104
	MOVWF       R12, 0
	MOVLW       228
	MOVWF       R13, 0
L_Save_shiftwise208:
	DECFSZ      R13, 1, 1
	BRA         L_Save_shiftwise208
	DECFSZ      R12, 1, 1
	BRA         L_Save_shiftwise208
	NOP
;EEPROM_Data.c,863 :: 		EEPROM_Write_int((InchO_addr_Temp),inchO);
	MOVLW       60
	MOVWF       FARG_EEPROM_Write_int_Addr+0 
	MOVLW       0
	MOVWF       FARG_EEPROM_Write_int_Addr+1 
	MOVF        _inchO+0, 0 
	MOVWF       R0 
	MOVF        _inchO+1, 0 
	MOVWF       R1 
	MOVF        _inchO+2, 0 
	MOVWF       R2 
	MOVF        _inchO+3, 0 
	MOVWF       R3 
	CALL        _double2word+0, 0
	MOVF        R0, 0 
	MOVWF       FARG_EEPROM_Write_int_Data+0 
	MOVF        R1, 0 
	MOVWF       FARG_EEPROM_Write_int_Data+1 
	CALL        _EEPROM_Write_int+0, 0
;EEPROM_Data.c,864 :: 		delay_ms(5);
	MOVLW       104
	MOVWF       R12, 0
	MOVLW       228
	MOVWF       R13, 0
L_Save_shiftwise209:
	DECFSZ      R13, 1, 1
	BRA         L_Save_shiftwise209
	DECFSZ      R12, 1, 1
	BRA         L_Save_shiftwise209
	NOP
;EEPROM_Data.c,865 :: 		EEPROM_Write_int((InchP_addr_Temp),inchP);
	MOVLW       62
	MOVWF       FARG_EEPROM_Write_int_Addr+0 
	MOVLW       0
	MOVWF       FARG_EEPROM_Write_int_Addr+1 
	MOVF        _inchP+0, 0 
	MOVWF       R0 
	MOVF        _inchP+1, 0 
	MOVWF       R1 
	MOVF        _inchP+2, 0 
	MOVWF       R2 
	MOVF        _inchP+3, 0 
	MOVWF       R3 
	CALL        _double2word+0, 0
	MOVF        R0, 0 
	MOVWF       FARG_EEPROM_Write_int_Data+0 
	MOVF        R1, 0 
	MOVWF       FARG_EEPROM_Write_int_Data+1 
	CALL        _EEPROM_Write_int+0, 0
;EEPROM_Data.c,866 :: 		delay_ms(5);
	MOVLW       104
	MOVWF       R12, 0
	MOVLW       228
	MOVWF       R13, 0
L_Save_shiftwise210:
	DECFSZ      R13, 1, 1
	BRA         L_Save_shiftwise210
	DECFSZ      R12, 1, 1
	BRA         L_Save_shiftwise210
	NOP
;EEPROM_Data.c,867 :: 		}
L_end_Save_shiftwise:
	RETURN      0
; end of _Save_shiftwise

_Save_shiftwise_External:

;EEPROM_Data.c,869 :: 		void Save_shiftwise_External(void)
;EEPROM_Data.c,873 :: 		EEPROM_AT24C32_WrInt((InchA_addr+(2*Shift_value)),inchA);
	MOVF        _Shift_value+0, 0 
	MOVWF       R0 
	MOVLW       0
	MOVWF       R1 
	RLCF        R0, 1 
	RLCF        R1, 1 
	BCF         R0, 0 
	MOVLW       16
	ADDWF       R0, 0 
	MOVWF       FARG_EEPROM_AT24C32_WrInt_wAddr+0 
	MOVLW       0
	ADDWFC      R1, 0 
	MOVWF       FARG_EEPROM_AT24C32_WrInt_wAddr+1 
	MOVF        _inchA+0, 0 
	MOVWF       R0 
	MOVF        _inchA+1, 0 
	MOVWF       R1 
	MOVF        _inchA+2, 0 
	MOVWF       R2 
	MOVF        _inchA+3, 0 
	MOVWF       R3 
	CALL        _double2word+0, 0
	MOVF        R0, 0 
	MOVWF       FARG_EEPROM_AT24C32_WrInt_wData+0 
	MOVF        R1, 0 
	MOVWF       FARG_EEPROM_AT24C32_WrInt_wData+1 
	CALL        _EEPROM_AT24C32_WrInt+0, 0
;EEPROM_Data.c,874 :: 		delay_ms(5);
	MOVLW       104
	MOVWF       R12, 0
	MOVLW       228
	MOVWF       R13, 0
L_Save_shiftwise_External211:
	DECFSZ      R13, 1, 1
	BRA         L_Save_shiftwise_External211
	DECFSZ      R12, 1, 1
	BRA         L_Save_shiftwise_External211
	NOP
;EEPROM_Data.c,875 :: 		EEPROM_AT24C32_WrInt((InchB_addr+(2*Shift_value)),inchB);
	MOVF        _Shift_value+0, 0 
	MOVWF       R0 
	MOVLW       0
	MOVWF       R1 
	RLCF        R0, 1 
	RLCF        R1, 1 
	BCF         R0, 0 
	MOVLW       208
	ADDWF       R0, 0 
	MOVWF       FARG_EEPROM_AT24C32_WrInt_wAddr+0 
	MOVLW       0
	ADDWFC      R1, 0 
	MOVWF       FARG_EEPROM_AT24C32_WrInt_wAddr+1 
	MOVF        _inchB+0, 0 
	MOVWF       R0 
	MOVF        _inchB+1, 0 
	MOVWF       R1 
	MOVF        _inchB+2, 0 
	MOVWF       R2 
	MOVF        _inchB+3, 0 
	MOVWF       R3 
	CALL        _double2word+0, 0
	MOVF        R0, 0 
	MOVWF       FARG_EEPROM_AT24C32_WrInt_wData+0 
	MOVF        R1, 0 
	MOVWF       FARG_EEPROM_AT24C32_WrInt_wData+1 
	CALL        _EEPROM_AT24C32_WrInt+0, 0
;EEPROM_Data.c,876 :: 		delay_ms(5);
	MOVLW       104
	MOVWF       R12, 0
	MOVLW       228
	MOVWF       R13, 0
L_Save_shiftwise_External212:
	DECFSZ      R13, 1, 1
	BRA         L_Save_shiftwise_External212
	DECFSZ      R12, 1, 1
	BRA         L_Save_shiftwise_External212
	NOP
;EEPROM_Data.c,877 :: 		EEPROM_AT24C32_WrInt((InchC_addr+(2*Shift_value)),inchC);
	MOVF        _Shift_value+0, 0 
	MOVWF       R0 
	MOVLW       0
	MOVWF       R1 
	RLCF        R0, 1 
	RLCF        R1, 1 
	BCF         R0, 0 
	MOVLW       144
	ADDWF       R0, 0 
	MOVWF       FARG_EEPROM_AT24C32_WrInt_wAddr+0 
	MOVLW       1
	ADDWFC      R1, 0 
	MOVWF       FARG_EEPROM_AT24C32_WrInt_wAddr+1 
	MOVF        _inchC+0, 0 
	MOVWF       R0 
	MOVF        _inchC+1, 0 
	MOVWF       R1 
	MOVF        _inchC+2, 0 
	MOVWF       R2 
	MOVF        _inchC+3, 0 
	MOVWF       R3 
	CALL        _double2word+0, 0
	MOVF        R0, 0 
	MOVWF       FARG_EEPROM_AT24C32_WrInt_wData+0 
	MOVF        R1, 0 
	MOVWF       FARG_EEPROM_AT24C32_WrInt_wData+1 
	CALL        _EEPROM_AT24C32_WrInt+0, 0
;EEPROM_Data.c,878 :: 		delay_ms(5);
	MOVLW       104
	MOVWF       R12, 0
	MOVLW       228
	MOVWF       R13, 0
L_Save_shiftwise_External213:
	DECFSZ      R13, 1, 1
	BRA         L_Save_shiftwise_External213
	DECFSZ      R12, 1, 1
	BRA         L_Save_shiftwise_External213
	NOP
;EEPROM_Data.c,879 :: 		EEPROM_AT24C32_WrInt((InchD_addr+(2*Shift_value)),inchD);
	MOVF        _Shift_value+0, 0 
	MOVWF       R0 
	MOVLW       0
	MOVWF       R1 
	RLCF        R0, 1 
	RLCF        R1, 1 
	BCF         R0, 0 
	MOVLW       80
	ADDWF       R0, 0 
	MOVWF       FARG_EEPROM_AT24C32_WrInt_wAddr+0 
	MOVLW       2
	ADDWFC      R1, 0 
	MOVWF       FARG_EEPROM_AT24C32_WrInt_wAddr+1 
	MOVF        _inchD+0, 0 
	MOVWF       R0 
	MOVF        _inchD+1, 0 
	MOVWF       R1 
	MOVF        _inchD+2, 0 
	MOVWF       R2 
	MOVF        _inchD+3, 0 
	MOVWF       R3 
	CALL        _double2word+0, 0
	MOVF        R0, 0 
	MOVWF       FARG_EEPROM_AT24C32_WrInt_wData+0 
	MOVF        R1, 0 
	MOVWF       FARG_EEPROM_AT24C32_WrInt_wData+1 
	CALL        _EEPROM_AT24C32_WrInt+0, 0
;EEPROM_Data.c,880 :: 		delay_ms(5);
	MOVLW       104
	MOVWF       R12, 0
	MOVLW       228
	MOVWF       R13, 0
L_Save_shiftwise_External214:
	DECFSZ      R13, 1, 1
	BRA         L_Save_shiftwise_External214
	DECFSZ      R12, 1, 1
	BRA         L_Save_shiftwise_External214
	NOP
;EEPROM_Data.c,881 :: 		EEPROM_AT24C32_WrInt((InchE_addr+(2*Shift_value)),inchE);
	MOVF        _Shift_value+0, 0 
	MOVWF       R0 
	MOVLW       0
	MOVWF       R1 
	RLCF        R0, 1 
	RLCF        R1, 1 
	BCF         R0, 0 
	MOVLW       16
	ADDWF       R0, 0 
	MOVWF       FARG_EEPROM_AT24C32_WrInt_wAddr+0 
	MOVLW       3
	ADDWFC      R1, 0 
	MOVWF       FARG_EEPROM_AT24C32_WrInt_wAddr+1 
	MOVF        _inchE+0, 0 
	MOVWF       R0 
	MOVF        _inchE+1, 0 
	MOVWF       R1 
	MOVF        _inchE+2, 0 
	MOVWF       R2 
	MOVF        _inchE+3, 0 
	MOVWF       R3 
	CALL        _double2word+0, 0
	MOVF        R0, 0 
	MOVWF       FARG_EEPROM_AT24C32_WrInt_wData+0 
	MOVF        R1, 0 
	MOVWF       FARG_EEPROM_AT24C32_WrInt_wData+1 
	CALL        _EEPROM_AT24C32_WrInt+0, 0
;EEPROM_Data.c,882 :: 		delay_ms(5);
	MOVLW       104
	MOVWF       R12, 0
	MOVLW       228
	MOVWF       R13, 0
L_Save_shiftwise_External215:
	DECFSZ      R13, 1, 1
	BRA         L_Save_shiftwise_External215
	DECFSZ      R12, 1, 1
	BRA         L_Save_shiftwise_External215
	NOP
;EEPROM_Data.c,883 :: 		EEPROM_AT24C32_WrInt((InchF_addr+(2*Shift_value)),inchF);
	MOVF        _Shift_value+0, 0 
	MOVWF       R0 
	MOVLW       0
	MOVWF       R1 
	RLCF        R0, 1 
	RLCF        R1, 1 
	BCF         R0, 0 
	MOVLW       208
	ADDWF       R0, 0 
	MOVWF       FARG_EEPROM_AT24C32_WrInt_wAddr+0 
	MOVLW       3
	ADDWFC      R1, 0 
	MOVWF       FARG_EEPROM_AT24C32_WrInt_wAddr+1 
	MOVF        _inchF+0, 0 
	MOVWF       R0 
	MOVF        _inchF+1, 0 
	MOVWF       R1 
	MOVF        _inchF+2, 0 
	MOVWF       R2 
	MOVF        _inchF+3, 0 
	MOVWF       R3 
	CALL        _double2word+0, 0
	MOVF        R0, 0 
	MOVWF       FARG_EEPROM_AT24C32_WrInt_wData+0 
	MOVF        R1, 0 
	MOVWF       FARG_EEPROM_AT24C32_WrInt_wData+1 
	CALL        _EEPROM_AT24C32_WrInt+0, 0
;EEPROM_Data.c,884 :: 		delay_ms(5);
	MOVLW       104
	MOVWF       R12, 0
	MOVLW       228
	MOVWF       R13, 0
L_Save_shiftwise_External216:
	DECFSZ      R13, 1, 1
	BRA         L_Save_shiftwise_External216
	DECFSZ      R12, 1, 1
	BRA         L_Save_shiftwise_External216
	NOP
;EEPROM_Data.c,885 :: 		EEPROM_AT24C32_WrInt((InchG_addr+(2*Shift_value)),inchG);
	MOVF        _Shift_value+0, 0 
	MOVWF       R0 
	MOVLW       0
	MOVWF       R1 
	RLCF        R0, 1 
	RLCF        R1, 1 
	BCF         R0, 0 
	MOVLW       144
	ADDWF       R0, 0 
	MOVWF       FARG_EEPROM_AT24C32_WrInt_wAddr+0 
	MOVLW       4
	ADDWFC      R1, 0 
	MOVWF       FARG_EEPROM_AT24C32_WrInt_wAddr+1 
	MOVF        _inchG+0, 0 
	MOVWF       R0 
	MOVF        _inchG+1, 0 
	MOVWF       R1 
	MOVF        _inchG+2, 0 
	MOVWF       R2 
	MOVF        _inchG+3, 0 
	MOVWF       R3 
	CALL        _double2word+0, 0
	MOVF        R0, 0 
	MOVWF       FARG_EEPROM_AT24C32_WrInt_wData+0 
	MOVF        R1, 0 
	MOVWF       FARG_EEPROM_AT24C32_WrInt_wData+1 
	CALL        _EEPROM_AT24C32_WrInt+0, 0
;EEPROM_Data.c,886 :: 		delay_ms(5);
	MOVLW       104
	MOVWF       R12, 0
	MOVLW       228
	MOVWF       R13, 0
L_Save_shiftwise_External217:
	DECFSZ      R13, 1, 1
	BRA         L_Save_shiftwise_External217
	DECFSZ      R12, 1, 1
	BRA         L_Save_shiftwise_External217
	NOP
;EEPROM_Data.c,887 :: 		EEPROM_AT24C32_WrInt((InchH_addr+(2*Shift_value)),inchH);
	MOVF        _Shift_value+0, 0 
	MOVWF       R0 
	MOVLW       0
	MOVWF       R1 
	RLCF        R0, 1 
	RLCF        R1, 1 
	BCF         R0, 0 
	MOVLW       80
	ADDWF       R0, 0 
	MOVWF       FARG_EEPROM_AT24C32_WrInt_wAddr+0 
	MOVLW       5
	ADDWFC      R1, 0 
	MOVWF       FARG_EEPROM_AT24C32_WrInt_wAddr+1 
	MOVF        _inchH+0, 0 
	MOVWF       R0 
	MOVF        _inchH+1, 0 
	MOVWF       R1 
	MOVF        _inchH+2, 0 
	MOVWF       R2 
	MOVF        _inchH+3, 0 
	MOVWF       R3 
	CALL        _double2word+0, 0
	MOVF        R0, 0 
	MOVWF       FARG_EEPROM_AT24C32_WrInt_wData+0 
	MOVF        R1, 0 
	MOVWF       FARG_EEPROM_AT24C32_WrInt_wData+1 
	CALL        _EEPROM_AT24C32_WrInt+0, 0
;EEPROM_Data.c,888 :: 		delay_ms(5);
	MOVLW       104
	MOVWF       R12, 0
	MOVLW       228
	MOVWF       R13, 0
L_Save_shiftwise_External218:
	DECFSZ      R13, 1, 1
	BRA         L_Save_shiftwise_External218
	DECFSZ      R12, 1, 1
	BRA         L_Save_shiftwise_External218
	NOP
;EEPROM_Data.c,889 :: 		EEPROM_AT24C32_WrInt((InchI_addr+(2*Shift_value)),inchI);
	MOVF        _Shift_value+0, 0 
	MOVWF       R0 
	MOVLW       0
	MOVWF       R1 
	RLCF        R0, 1 
	RLCF        R1, 1 
	BCF         R0, 0 
	MOVLW       16
	ADDWF       R0, 0 
	MOVWF       FARG_EEPROM_AT24C32_WrInt_wAddr+0 
	MOVLW       6
	ADDWFC      R1, 0 
	MOVWF       FARG_EEPROM_AT24C32_WrInt_wAddr+1 
	MOVF        _inchI+0, 0 
	MOVWF       R0 
	MOVF        _inchI+1, 0 
	MOVWF       R1 
	MOVF        _inchI+2, 0 
	MOVWF       R2 
	MOVF        _inchI+3, 0 
	MOVWF       R3 
	CALL        _double2word+0, 0
	MOVF        R0, 0 
	MOVWF       FARG_EEPROM_AT24C32_WrInt_wData+0 
	MOVF        R1, 0 
	MOVWF       FARG_EEPROM_AT24C32_WrInt_wData+1 
	CALL        _EEPROM_AT24C32_WrInt+0, 0
;EEPROM_Data.c,890 :: 		delay_ms(5);
	MOVLW       104
	MOVWF       R12, 0
	MOVLW       228
	MOVWF       R13, 0
L_Save_shiftwise_External219:
	DECFSZ      R13, 1, 1
	BRA         L_Save_shiftwise_External219
	DECFSZ      R12, 1, 1
	BRA         L_Save_shiftwise_External219
	NOP
;EEPROM_Data.c,891 :: 		EEPROM_AT24C32_WrInt((InchJ_addr+(2*Shift_value)),inchJ);
	MOVF        _Shift_value+0, 0 
	MOVWF       R0 
	MOVLW       0
	MOVWF       R1 
	RLCF        R0, 1 
	RLCF        R1, 1 
	BCF         R0, 0 
	MOVLW       208
	ADDWF       R0, 0 
	MOVWF       FARG_EEPROM_AT24C32_WrInt_wAddr+0 
	MOVLW       6
	ADDWFC      R1, 0 
	MOVWF       FARG_EEPROM_AT24C32_WrInt_wAddr+1 
	MOVF        _inchJ+0, 0 
	MOVWF       R0 
	MOVF        _inchJ+1, 0 
	MOVWF       R1 
	MOVF        _inchJ+2, 0 
	MOVWF       R2 
	MOVF        _inchJ+3, 0 
	MOVWF       R3 
	CALL        _double2word+0, 0
	MOVF        R0, 0 
	MOVWF       FARG_EEPROM_AT24C32_WrInt_wData+0 
	MOVF        R1, 0 
	MOVWF       FARG_EEPROM_AT24C32_WrInt_wData+1 
	CALL        _EEPROM_AT24C32_WrInt+0, 0
;EEPROM_Data.c,892 :: 		delay_ms(5);
	MOVLW       104
	MOVWF       R12, 0
	MOVLW       228
	MOVWF       R13, 0
L_Save_shiftwise_External220:
	DECFSZ      R13, 1, 1
	BRA         L_Save_shiftwise_External220
	DECFSZ      R12, 1, 1
	BRA         L_Save_shiftwise_External220
	NOP
;EEPROM_Data.c,893 :: 		EEPROM_AT24C32_WrInt((InchK_addr+(2*Shift_value)),inchK);
	MOVF        _Shift_value+0, 0 
	MOVWF       R0 
	MOVLW       0
	MOVWF       R1 
	RLCF        R0, 1 
	RLCF        R1, 1 
	BCF         R0, 0 
	MOVLW       144
	ADDWF       R0, 0 
	MOVWF       FARG_EEPROM_AT24C32_WrInt_wAddr+0 
	MOVLW       7
	ADDWFC      R1, 0 
	MOVWF       FARG_EEPROM_AT24C32_WrInt_wAddr+1 
	MOVF        _inchK+0, 0 
	MOVWF       R0 
	MOVF        _inchK+1, 0 
	MOVWF       R1 
	MOVF        _inchK+2, 0 
	MOVWF       R2 
	MOVF        _inchK+3, 0 
	MOVWF       R3 
	CALL        _double2word+0, 0
	MOVF        R0, 0 
	MOVWF       FARG_EEPROM_AT24C32_WrInt_wData+0 
	MOVF        R1, 0 
	MOVWF       FARG_EEPROM_AT24C32_WrInt_wData+1 
	CALL        _EEPROM_AT24C32_WrInt+0, 0
;EEPROM_Data.c,894 :: 		delay_ms(5);
	MOVLW       104
	MOVWF       R12, 0
	MOVLW       228
	MOVWF       R13, 0
L_Save_shiftwise_External221:
	DECFSZ      R13, 1, 1
	BRA         L_Save_shiftwise_External221
	DECFSZ      R12, 1, 1
	BRA         L_Save_shiftwise_External221
	NOP
;EEPROM_Data.c,895 :: 		EEPROM_AT24C32_WrInt((InchL_addr+(2*Shift_value)),inchL);
	MOVF        _Shift_value+0, 0 
	MOVWF       R0 
	MOVLW       0
	MOVWF       R1 
	RLCF        R0, 1 
	RLCF        R1, 1 
	BCF         R0, 0 
	MOVLW       80
	ADDWF       R0, 0 
	MOVWF       FARG_EEPROM_AT24C32_WrInt_wAddr+0 
	MOVLW       8
	ADDWFC      R1, 0 
	MOVWF       FARG_EEPROM_AT24C32_WrInt_wAddr+1 
	MOVF        _inchL+0, 0 
	MOVWF       R0 
	MOVF        _inchL+1, 0 
	MOVWF       R1 
	MOVF        _inchL+2, 0 
	MOVWF       R2 
	MOVF        _inchL+3, 0 
	MOVWF       R3 
	CALL        _double2word+0, 0
	MOVF        R0, 0 
	MOVWF       FARG_EEPROM_AT24C32_WrInt_wData+0 
	MOVF        R1, 0 
	MOVWF       FARG_EEPROM_AT24C32_WrInt_wData+1 
	CALL        _EEPROM_AT24C32_WrInt+0, 0
;EEPROM_Data.c,896 :: 		delay_ms(5);
	MOVLW       104
	MOVWF       R12, 0
	MOVLW       228
	MOVWF       R13, 0
L_Save_shiftwise_External222:
	DECFSZ      R13, 1, 1
	BRA         L_Save_shiftwise_External222
	DECFSZ      R12, 1, 1
	BRA         L_Save_shiftwise_External222
	NOP
;EEPROM_Data.c,897 :: 		EEPROM_AT24C32_WrInt((InchM_addr+(2*Shift_value)),inchM);
	MOVF        _Shift_value+0, 0 
	MOVWF       R0 
	MOVLW       0
	MOVWF       R1 
	RLCF        R0, 1 
	RLCF        R1, 1 
	BCF         R0, 0 
	MOVLW       16
	ADDWF       R0, 0 
	MOVWF       FARG_EEPROM_AT24C32_WrInt_wAddr+0 
	MOVLW       9
	ADDWFC      R1, 0 
	MOVWF       FARG_EEPROM_AT24C32_WrInt_wAddr+1 
	MOVF        _inchM+0, 0 
	MOVWF       R0 
	MOVF        _inchM+1, 0 
	MOVWF       R1 
	MOVF        _inchM+2, 0 
	MOVWF       R2 
	MOVF        _inchM+3, 0 
	MOVWF       R3 
	CALL        _double2word+0, 0
	MOVF        R0, 0 
	MOVWF       FARG_EEPROM_AT24C32_WrInt_wData+0 
	MOVF        R1, 0 
	MOVWF       FARG_EEPROM_AT24C32_WrInt_wData+1 
	CALL        _EEPROM_AT24C32_WrInt+0, 0
;EEPROM_Data.c,898 :: 		delay_ms(5);
	MOVLW       104
	MOVWF       R12, 0
	MOVLW       228
	MOVWF       R13, 0
L_Save_shiftwise_External223:
	DECFSZ      R13, 1, 1
	BRA         L_Save_shiftwise_External223
	DECFSZ      R12, 1, 1
	BRA         L_Save_shiftwise_External223
	NOP
;EEPROM_Data.c,899 :: 		EEPROM_AT24C32_WrInt((InchN_addr+(2*Shift_value)),inchN);
	MOVF        _Shift_value+0, 0 
	MOVWF       R0 
	MOVLW       0
	MOVWF       R1 
	RLCF        R0, 1 
	RLCF        R1, 1 
	BCF         R0, 0 
	MOVLW       208
	ADDWF       R0, 0 
	MOVWF       FARG_EEPROM_AT24C32_WrInt_wAddr+0 
	MOVLW       9
	ADDWFC      R1, 0 
	MOVWF       FARG_EEPROM_AT24C32_WrInt_wAddr+1 
	MOVF        _inchN+0, 0 
	MOVWF       R0 
	MOVF        _inchN+1, 0 
	MOVWF       R1 
	MOVF        _inchN+2, 0 
	MOVWF       R2 
	MOVF        _inchN+3, 0 
	MOVWF       R3 
	CALL        _double2word+0, 0
	MOVF        R0, 0 
	MOVWF       FARG_EEPROM_AT24C32_WrInt_wData+0 
	MOVF        R1, 0 
	MOVWF       FARG_EEPROM_AT24C32_WrInt_wData+1 
	CALL        _EEPROM_AT24C32_WrInt+0, 0
;EEPROM_Data.c,900 :: 		delay_ms(5);
	MOVLW       104
	MOVWF       R12, 0
	MOVLW       228
	MOVWF       R13, 0
L_Save_shiftwise_External224:
	DECFSZ      R13, 1, 1
	BRA         L_Save_shiftwise_External224
	DECFSZ      R12, 1, 1
	BRA         L_Save_shiftwise_External224
	NOP
;EEPROM_Data.c,901 :: 		EEPROM_AT24C32_WrInt((InchO_addr+(2*Shift_value)),inchO);
	MOVF        _Shift_value+0, 0 
	MOVWF       R0 
	MOVLW       0
	MOVWF       R1 
	RLCF        R0, 1 
	RLCF        R1, 1 
	BCF         R0, 0 
	MOVLW       144
	ADDWF       R0, 0 
	MOVWF       FARG_EEPROM_AT24C32_WrInt_wAddr+0 
	MOVLW       10
	ADDWFC      R1, 0 
	MOVWF       FARG_EEPROM_AT24C32_WrInt_wAddr+1 
	MOVF        _inchO+0, 0 
	MOVWF       R0 
	MOVF        _inchO+1, 0 
	MOVWF       R1 
	MOVF        _inchO+2, 0 
	MOVWF       R2 
	MOVF        _inchO+3, 0 
	MOVWF       R3 
	CALL        _double2word+0, 0
	MOVF        R0, 0 
	MOVWF       FARG_EEPROM_AT24C32_WrInt_wData+0 
	MOVF        R1, 0 
	MOVWF       FARG_EEPROM_AT24C32_WrInt_wData+1 
	CALL        _EEPROM_AT24C32_WrInt+0, 0
;EEPROM_Data.c,902 :: 		delay_ms(5);
	MOVLW       104
	MOVWF       R12, 0
	MOVLW       228
	MOVWF       R13, 0
L_Save_shiftwise_External225:
	DECFSZ      R13, 1, 1
	BRA         L_Save_shiftwise_External225
	DECFSZ      R12, 1, 1
	BRA         L_Save_shiftwise_External225
	NOP
;EEPROM_Data.c,903 :: 		EEPROM_AT24C32_WrInt((InchP_addr+(2*Shift_value)),inchP);
	MOVF        _Shift_value+0, 0 
	MOVWF       R0 
	MOVLW       0
	MOVWF       R1 
	RLCF        R0, 1 
	RLCF        R1, 1 
	BCF         R0, 0 
	MOVLW       80
	ADDWF       R0, 0 
	MOVWF       FARG_EEPROM_AT24C32_WrInt_wAddr+0 
	MOVLW       11
	ADDWFC      R1, 0 
	MOVWF       FARG_EEPROM_AT24C32_WrInt_wAddr+1 
	MOVF        _inchP+0, 0 
	MOVWF       R0 
	MOVF        _inchP+1, 0 
	MOVWF       R1 
	MOVF        _inchP+2, 0 
	MOVWF       R2 
	MOVF        _inchP+3, 0 
	MOVWF       R3 
	CALL        _double2word+0, 0
	MOVF        R0, 0 
	MOVWF       FARG_EEPROM_AT24C32_WrInt_wData+0 
	MOVF        R1, 0 
	MOVWF       FARG_EEPROM_AT24C32_WrInt_wData+1 
	CALL        _EEPROM_AT24C32_WrInt+0, 0
;EEPROM_Data.c,904 :: 		delay_ms(5);
	MOVLW       104
	MOVWF       R12, 0
	MOVLW       228
	MOVWF       R13, 0
L_Save_shiftwise_External226:
	DECFSZ      R13, 1, 1
	BRA         L_Save_shiftwise_External226
	DECFSZ      R12, 1, 1
	BRA         L_Save_shiftwise_External226
	NOP
;EEPROM_Data.c,905 :: 		}
L_end_Save_shiftwise_External:
	RETURN      0
; end of _Save_shiftwise_External

_Save_shiftwise_Date_time_External:

;EEPROM_Data.c,907 :: 		void Save_shiftwise_Date_time_External(void)
;EEPROM_Data.c,909 :: 		Read_Date_Time_Rtc();
	CALL        _Read_Date_Time_Rtc+0, 0
;EEPROM_Data.c,910 :: 		EEPROM_AT24C32_WrByte((Date_Time_addr+(5*Shift_value)+0), Hour);
	MOVLW       5
	MULWF       _Shift_value+0 
	MOVF        PRODL+0, 0 
	MOVWF       R0 
	MOVF        PRODH+0, 0 
	MOVWF       R1 
	MOVLW       0
	ADDWF       R0, 0 
	MOVWF       FARG_EEPROM_AT24C32_WrByte_wAddr+0 
	MOVLW       13
	ADDWFC      R1, 0 
	MOVWF       FARG_EEPROM_AT24C32_WrByte_wAddr+1 
	MOVF        _Hour+0, 0 
	MOVWF       FARG_EEPROM_AT24C32_WrByte_wData+0 
	MOVLW       0
	MOVWF       FARG_EEPROM_AT24C32_WrByte_wData+1 
	CALL        _EEPROM_AT24C32_WrByte+0, 0
;EEPROM_Data.c,911 :: 		EEPROM_AT24C32_WrByte((Date_Time_addr+(5*Shift_value)+1), Min);
	MOVLW       5
	MULWF       _Shift_value+0 
	MOVF        PRODL+0, 0 
	MOVWF       R0 
	MOVF        PRODH+0, 0 
	MOVWF       R1 
	MOVLW       0
	ADDWF       R0, 0 
	MOVWF       FARG_EEPROM_AT24C32_WrByte_wAddr+0 
	MOVLW       13
	ADDWFC      R1, 0 
	MOVWF       FARG_EEPROM_AT24C32_WrByte_wAddr+1 
	INFSNZ      FARG_EEPROM_AT24C32_WrByte_wAddr+0, 1 
	INCF        FARG_EEPROM_AT24C32_WrByte_wAddr+1, 1 
	MOVF        _Min+0, 0 
	MOVWF       FARG_EEPROM_AT24C32_WrByte_wData+0 
	MOVLW       0
	MOVWF       FARG_EEPROM_AT24C32_WrByte_wData+1 
	CALL        _EEPROM_AT24C32_WrByte+0, 0
;EEPROM_Data.c,912 :: 		EEPROM_AT24C32_WrByte((Date_Time_addr+(5*Shift_value)+2), Date);
	MOVLW       5
	MULWF       _Shift_value+0 
	MOVF        PRODL+0, 0 
	MOVWF       R0 
	MOVF        PRODH+0, 0 
	MOVWF       R1 
	MOVLW       0
	ADDWF       R0, 0 
	MOVWF       FARG_EEPROM_AT24C32_WrByte_wAddr+0 
	MOVLW       13
	ADDWFC      R1, 0 
	MOVWF       FARG_EEPROM_AT24C32_WrByte_wAddr+1 
	MOVLW       2
	ADDWF       FARG_EEPROM_AT24C32_WrByte_wAddr+0, 1 
	MOVLW       0
	ADDWFC      FARG_EEPROM_AT24C32_WrByte_wAddr+1, 1 
	MOVF        _Date+0, 0 
	MOVWF       FARG_EEPROM_AT24C32_WrByte_wData+0 
	MOVLW       0
	MOVWF       FARG_EEPROM_AT24C32_WrByte_wData+1 
	CALL        _EEPROM_AT24C32_WrByte+0, 0
;EEPROM_Data.c,913 :: 		EEPROM_AT24C32_WrByte((Date_Time_addr+(5*Shift_value)+3), Month);
	MOVLW       5
	MULWF       _Shift_value+0 
	MOVF        PRODL+0, 0 
	MOVWF       R0 
	MOVF        PRODH+0, 0 
	MOVWF       R1 
	MOVLW       0
	ADDWF       R0, 0 
	MOVWF       FARG_EEPROM_AT24C32_WrByte_wAddr+0 
	MOVLW       13
	ADDWFC      R1, 0 
	MOVWF       FARG_EEPROM_AT24C32_WrByte_wAddr+1 
	MOVLW       3
	ADDWF       FARG_EEPROM_AT24C32_WrByte_wAddr+0, 1 
	MOVLW       0
	ADDWFC      FARG_EEPROM_AT24C32_WrByte_wAddr+1, 1 
	MOVF        _Month+0, 0 
	MOVWF       FARG_EEPROM_AT24C32_WrByte_wData+0 
	MOVLW       0
	MOVWF       FARG_EEPROM_AT24C32_WrByte_wData+1 
	CALL        _EEPROM_AT24C32_WrByte+0, 0
;EEPROM_Data.c,914 :: 		EEPROM_AT24C32_WrByte((Date_Time_addr+(5*Shift_value)+4), Year);
	MOVLW       5
	MULWF       _Shift_value+0 
	MOVF        PRODL+0, 0 
	MOVWF       R0 
	MOVF        PRODH+0, 0 
	MOVWF       R1 
	MOVLW       0
	ADDWF       R0, 0 
	MOVWF       FARG_EEPROM_AT24C32_WrByte_wAddr+0 
	MOVLW       13
	ADDWFC      R1, 0 
	MOVWF       FARG_EEPROM_AT24C32_WrByte_wAddr+1 
	MOVLW       4
	ADDWF       FARG_EEPROM_AT24C32_WrByte_wAddr+0, 1 
	MOVLW       0
	ADDWFC      FARG_EEPROM_AT24C32_WrByte_wAddr+1, 1 
	MOVF        _Year+0, 0 
	MOVWF       FARG_EEPROM_AT24C32_WrByte_wData+0 
	MOVLW       0
	MOVWF       FARG_EEPROM_AT24C32_WrByte_wData+1 
	CALL        _EEPROM_AT24C32_WrByte+0, 0
;EEPROM_Data.c,915 :: 		delay_ms(400);
	MOVLW       33
	MOVWF       R11, 0
	MOVLW       120
	MOVWF       R12, 0
	MOVLW       152
	MOVWF       R13, 0
L_Save_shiftwise_Date_time_External227:
	DECFSZ      R13, 1, 1
	BRA         L_Save_shiftwise_Date_time_External227
	DECFSZ      R12, 1, 1
	BRA         L_Save_shiftwise_Date_time_External227
	DECFSZ      R11, 1, 1
	BRA         L_Save_shiftwise_Date_time_External227
	NOP
;EEPROM_Data.c,916 :: 		}
L_end_Save_shiftwise_Date_time_External:
	RETURN      0
; end of _Save_shiftwise_Date_time_External

_EEPROM_Write_int:

;EEPROM_Data.c,918 :: 		void EEPROM_Write_int(unsigned int Addr,unsigned int Data)
;EEPROM_Data.c,920 :: 		EEPROM_Write(Addr,(Data>>8)&0x00FF);
	MOVF        FARG_EEPROM_Write_int_Addr+0, 0 
	MOVWF       FARG_Eeprom_Write_address+0 
	MOVF        FARG_EEPROM_Write_int_Addr+1, 0 
	MOVWF       FARG_Eeprom_Write_address+1 
	MOVF        FARG_EEPROM_Write_int_Data+1, 0 
	MOVWF       R0 
	CLRF        R1 
	MOVLW       255
	ANDWF       R0, 0 
	MOVWF       FARG_Eeprom_Write_data_+0 
	CALL        _Eeprom_Write+0, 0
;EEPROM_Data.c,921 :: 		EEPROM_Write(Addr+1,Data&0x00FF);
	MOVLW       1
	ADDWF       FARG_EEPROM_Write_int_Addr+0, 0 
	MOVWF       FARG_Eeprom_Write_address+0 
	MOVLW       0
	ADDWFC      FARG_EEPROM_Write_int_Addr+1, 0 
	MOVWF       FARG_Eeprom_Write_address+1 
	MOVLW       255
	ANDWF       FARG_EEPROM_Write_int_Data+0, 0 
	MOVWF       FARG_Eeprom_Write_data_+0 
	CALL        _Eeprom_Write+0, 0
;EEPROM_Data.c,922 :: 		}
L_end_EEPROM_Write_int:
	RETURN      0
; end of _EEPROM_Write_int

_EEPROM_Read_int:

;EEPROM_Data.c,924 :: 		unsigned int EEPROM_Read_int(unsigned int Addr)
;EEPROM_Data.c,926 :: 		unsigned int Data=0,temp=0;
	CLRF        EEPROM_Read_int_Data_L0+0 
	CLRF        EEPROM_Read_int_Data_L0+1 
	CLRF        EEPROM_Read_int_temp_L0+0 
	CLRF        EEPROM_Read_int_temp_L0+1 
;EEPROM_Data.c,927 :: 		temp = EEPROM_Read(Addr);
	MOVF        FARG_EEPROM_Read_int_Addr+0, 0 
	MOVWF       FARG_Eeprom_Read_address+0 
	MOVF        FARG_EEPROM_Read_int_Addr+1, 0 
	MOVWF       FARG_Eeprom_Read_address+1 
	CALL        _Eeprom_Read+0, 0
	MOVF        R0, 0 
	MOVWF       EEPROM_Read_int_temp_L0+0 
	MOVLW       0
	MOVWF       EEPROM_Read_int_temp_L0+1 
;EEPROM_Data.c,928 :: 		Data = EEPROM_Read(Addr+1);
	MOVLW       1
	ADDWF       FARG_EEPROM_Read_int_Addr+0, 0 
	MOVWF       FARG_Eeprom_Read_address+0 
	MOVLW       0
	ADDWFC      FARG_EEPROM_Read_int_Addr+1, 0 
	MOVWF       FARG_Eeprom_Read_address+1 
	CALL        _Eeprom_Read+0, 0
	MOVF        R0, 0 
	MOVWF       EEPROM_Read_int_Data_L0+0 
	MOVLW       0
	MOVWF       EEPROM_Read_int_Data_L0+1 
;EEPROM_Data.c,929 :: 		delay_ms(5);
	MOVLW       104
	MOVWF       R12, 0
	MOVLW       228
	MOVWF       R13, 0
L_EEPROM_Read_int228:
	DECFSZ      R13, 1, 1
	BRA         L_EEPROM_Read_int228
	DECFSZ      R12, 1, 1
	BRA         L_EEPROM_Read_int228
	NOP
;EEPROM_Data.c,930 :: 		return (((temp<<8)&0xFF00) | (Data&0x00FF));
	MOVF        EEPROM_Read_int_temp_L0+0, 0 
	MOVWF       R1 
	CLRF        R0 
	MOVLW       0
	ANDWF       R0, 0 
	MOVWF       R2 
	MOVF        R1, 0 
	ANDLW       255
	MOVWF       R3 
	MOVLW       255
	ANDWF       EEPROM_Read_int_Data_L0+0, 0 
	MOVWF       R0 
	MOVF        EEPROM_Read_int_Data_L0+1, 0 
	MOVWF       R1 
	MOVLW       0
	ANDWF       R1, 1 
	MOVF        R2, 0 
	IORWF       R0, 1 
	MOVF        R3, 0 
	IORWF       R1, 1 
;EEPROM_Data.c,931 :: 		}
L_end_EEPROM_Read_int:
	RETURN      0
; end of _EEPROM_Read_int

_EEPORM_Write_Float:

;EEPROM_Data.c,976 :: 		void EEPORM_Write_Float(int Addr, float Value)
;EEPROM_Data.c,979 :: 		int scaledValue = (int)(value * 10);  // Integer representation of scaled float
	MOVF        FARG_EEPORM_Write_Float_Value+0, 0 
	MOVWF       R0 
	MOVF        FARG_EEPORM_Write_Float_Value+1, 0 
	MOVWF       R1 
	MOVF        FARG_EEPORM_Write_Float_Value+2, 0 
	MOVWF       R2 
	MOVF        FARG_EEPORM_Write_Float_Value+3, 0 
	MOVWF       R3 
	MOVLW       0
	MOVWF       R4 
	MOVLW       0
	MOVWF       R5 
	MOVLW       32
	MOVWF       R6 
	MOVLW       130
	MOVWF       R7 
	CALL        _Mul_32x32_FP+0, 0
	CALL        _double2int+0, 0
	MOVF        R0, 0 
	MOVWF       EEPORM_Write_Float_scaledValue_L0+0 
	MOVF        R1, 0 
	MOVWF       EEPORM_Write_Float_scaledValue_L0+1 
;EEPROM_Data.c,982 :: 		EEPROM_Write(Addr, (unsigned char)(scaledValue & 0xFF));  // Low byte
	MOVF        FARG_EEPORM_Write_Float_Addr+0, 0 
	MOVWF       FARG_Eeprom_Write_address+0 
	MOVF        FARG_EEPORM_Write_Float_Addr+1, 0 
	MOVWF       FARG_Eeprom_Write_address+1 
	MOVLW       255
	ANDWF       R0, 0 
	MOVWF       FARG_Eeprom_Write_data_+0 
	CALL        _Eeprom_Write+0, 0
;EEPROM_Data.c,983 :: 		EEPROM_Write(Addr + 1, (unsigned char)((scaledValue >> 8) & 0xFF));  // High byte
	MOVLW       1
	ADDWF       FARG_EEPORM_Write_Float_Addr+0, 0 
	MOVWF       FARG_Eeprom_Write_address+0 
	MOVLW       0
	ADDWFC      FARG_EEPORM_Write_Float_Addr+1, 0 
	MOVWF       FARG_Eeprom_Write_address+1 
	MOVF        EEPORM_Write_Float_scaledValue_L0+1, 0 
	MOVWF       R0 
	MOVLW       0
	BTFSC       EEPORM_Write_Float_scaledValue_L0+1, 7 
	MOVLW       255
	MOVWF       R1 
	MOVLW       255
	ANDWF       R0, 0 
	MOVWF       FARG_Eeprom_Write_data_+0 
	CALL        _Eeprom_Write+0, 0
;EEPROM_Data.c,984 :: 		}
L_end_EEPORM_Write_Float:
	RETURN      0
; end of _EEPORM_Write_Float

_EEPORM_Read_Float:

;EEPROM_Data.c,986 :: 		float EEPORM_Read_Float(int Addr)
;EEPROM_Data.c,989 :: 		unsigned char lowByte = EEPROM_Read(Addr);
	MOVF        FARG_EEPORM_Read_Float_Addr+0, 0 
	MOVWF       FARG_Eeprom_Read_address+0 
	MOVF        FARG_EEPORM_Read_Float_Addr+1, 0 
	MOVWF       FARG_Eeprom_Read_address+1 
	CALL        _Eeprom_Read+0, 0
	MOVF        R0, 0 
	MOVWF       EEPORM_Read_Float_lowByte_L0+0 
;EEPROM_Data.c,990 :: 		unsigned char highByte = EEPROM_Read(Addr + 1);
	MOVLW       1
	ADDWF       FARG_EEPORM_Read_Float_Addr+0, 0 
	MOVWF       FARG_Eeprom_Read_address+0 
	MOVLW       0
	ADDWFC      FARG_EEPORM_Read_Float_Addr+1, 0 
	MOVWF       FARG_Eeprom_Read_address+1 
	CALL        _Eeprom_Read+0, 0
;EEPROM_Data.c,993 :: 		int scaledValue = (highByte << 8) | lowByte;  // Reassemble the signed integer
	MOVF        R0, 0 
	MOVWF       R3 
	CLRF        R2 
	MOVF        EEPORM_Read_Float_lowByte_L0+0, 0 
	IORWF       R2, 0 
	MOVWF       R0 
	MOVF        R3, 0 
	MOVWF       R1 
	MOVLW       0
	IORWF       R1, 1 
;EEPROM_Data.c,996 :: 		return (float)scaledValue / 10.0;  // Convert back to float
	CALL        _int2double+0, 0
	MOVLW       0
	MOVWF       R4 
	MOVLW       0
	MOVWF       R5 
	MOVLW       32
	MOVWF       R6 
	MOVLW       130
	MOVWF       R7 
	CALL        _Div_32x32_FP+0, 0
;EEPROM_Data.c,997 :: 		}
L_end_EEPORM_Read_Float:
	RETURN      0
; end of _EEPORM_Read_Float
